Archive member included because of file (symbol)

arch/arm/cpu/hi3716mv310/libhi3716mv310.a(ddrphy_training_print.o)
                              arch/arm/cpu/hi3716mv310/ddr_dataeye_training.o (ddr_training_print)
arch/arm/cpu/hi3716mv310/libhi3716mv310.a(hi3716mv310_ddr_training.o)
                              arch/arm/cpu/hi3716mv310/lowlevel_init.o (hi3716mv310_ddr_training)
arch/arm/lib/libarm.a(board.o)
                              arch/arm/cpu/hi3716mv310/start.o (start_armboot)
arch/arm/lib/libarm.a(interrupts.o)
                              arch/arm/lib/libarm.a(board.o) (enable_interrupts)
arch/arm/lib/libarm.a(ddr_layout.o)
                              arch/arm/lib/libarm.a(board.o) (insert_ddr_layout)
arch/arm/lib/libarm.a(ddr_size.o)
                              arch/arm/lib/libarm.a(ddr_layout.o) (get_ddr_size)
arch/arm/lib/libarm.a(cpu_info.o)
                              arch/arm/lib/libarm.a(ddr_size.o) (get_max_ddr_size)
net/libnet.a(eth.o)           arch/arm/lib/libarm.a(board.o) (eth_initialize)
net/libnet.a(net.o)           arch/arm/lib/libarm.a(board.o) (copy_filename)
net/libnet.a(rarp.o)          net/libnet.a(net.o) (RarpRequest)
net/libnet.a(tftp.o)          net/libnet.a(net.o) (TftpStart)
net/libnet.a(bootp.o)         net/libnet.a(net.o) (BootpRequest)
drivers/mtd/nand/libnand.a(nand.o)
                              arch/arm/lib/libarm.a(board.o) (nand_init)
drivers/mtd/nand/libnand.a(hinfc_init.o)
                              arch/arm/lib/libarm.a(board.o) (nand_rr_param_init)
drivers/mtd/nand/libnand.a(nand_base.o)
                              arch/arm/lib/libarm.a(board.o) (get_nand_info)
drivers/mtd/nand/libnand.a(nand_bbt.o)
                              drivers/mtd/nand/libnand.a(nand_base.o) (nand_isbad_bbt)
drivers/mtd/nand/libnand.a(nand_ecc.o)
                              drivers/mtd/nand/libnand.a(nand_base.o) (nand_calculate_ecc)
drivers/mtd/nand/libnand.a(nand_ids.o)
                              drivers/mtd/nand/libnand.a(nand_base.o) (nand_flash_ids)
drivers/mtd/nand/libnand.a(hinfc610.o)
                              drivers/mtd/nand/libnand.a(hinfc_init.o) (hinfc610_nand_rr_param_init)
drivers/mtd/nand/libnand.a(hinfc610_gen.o)
                              drivers/mtd/nand/libnand.a(hinfc610.o) (hinfc610_ecc_reg2type)
drivers/mtd/nand/libnand.a(hinfc610_read_retry.o)
                              drivers/mtd/nand/libnand.a(hinfc610.o) (hinfc610_find_read_retry)
drivers/mtd/nand/libnand.a(hinfc610_ecc_info.o)
                              drivers/mtd/nand/libnand.a(hinfc610.o) (hinfc610_ecc_info_init)
drivers/mtd/nand/libnand.a(hinfc610_sync.o)
                              drivers/mtd/nand/libnand.a(hinfc610.o) (hinfc610_get_sync_info)
drivers/mtd/nand/libnand.a(hinfc620_gen.o)
                              drivers/mtd/nand/libnand.a(hinfc610.o) (hinfc620_ecc_reg2type)
drivers/mtd/nand/libnand.a(hinfc610_sync_onfi_23.o)
                              drivers/mtd/nand/libnand.a(hinfc610_sync.o) (hinfc610_sync_onfi_23)
drivers/mtd/nand/libnand.a(hinfc610_sync_toggle.o)
                              drivers/mtd/nand/libnand.a(hinfc610_sync.o) (hinfc610_sync_toggle_10)
drivers/mtd/nand/libnand.a(hinfc610_rw_latch.o)
                              drivers/mtd/nand/libnand.a(hinfc610.o) (get_hinfc_rw_latch)
drivers/mtd/nand/libnand.a(hinfc610_rw_latch_hi3716mv310.o)
                              drivers/mtd/nand/libnand.a(hinfc610_rw_latch.o) (hinfc_rw_latch_table)
drivers/mtd/nand/libnand.a(hinfc_gen.o)
                              drivers/mtd/nand/libnand.a(hinfc610.o) (nand_page_name)
drivers/mtd/nand/libnand.a(nand_spl_ids.o)
                              drivers/mtd/nand/libnand.a(hinfc610.o) (nand_spl_ids_register)
drivers/mtd/nand/libnand.a(hinfc610_read_retry_hynix_bg_cdie.o)
                              drivers/mtd/nand/libnand.a(hinfc610_read_retry.o) (hinfc610_hynix_bg_cdie_read_retry)
drivers/mtd/nand/libnand.a(hinfc610_read_retry_hynix_bg_bdie.o)
                              drivers/mtd/nand/libnand.a(hinfc610_read_retry.o) (hinfc610_hynix_bg_bdie_read_retry)
drivers/mtd/nand/libnand.a(hinfc610_read_retry_hynix_cg_adie.o)
                              drivers/mtd/nand/libnand.a(hinfc610_read_retry.o) (hinfc610_hynix_cg_adie_read_retry)
drivers/mtd/nand/libnand.a(hinfc610_read_retry_micron.o)
                              drivers/mtd/nand/libnand.a(hinfc610_read_retry.o) (hinfc610_micron_read_retry)
drivers/mtd/nand/libnand.a(hinfc610_read_retry_samsung.o)
                              drivers/mtd/nand/libnand.a(hinfc610_read_retry.o) (hinfc610_samsung_read_retry)
drivers/mtd/nand/libnand.a(hinfc610_read_retry_toshiba_24nm.o)
                              drivers/mtd/nand/libnand.a(hinfc610_read_retry.o) (hinfc610_toshiba_24nm_read_retry)
drivers/mtd/nand/libnand.a(hinfc610_read_retry_toshiba_19nm.o)
                              drivers/mtd/nand/libnand.a(hinfc610_read_retry.o) (hinfc610_toshiba_19nm_read_retry)
drivers/serial/libserial.a(serial_pl01x.o)
                              arch/arm/lib/libarm.a(board.o) (serial_init)
common/libcommon.a(bootstrap.o)
                              arch/arm/lib/libarm.a(board.o) (download_boot)
common/libcommon.a(cmd_boot.o)
                              (__u_boot_cmd_go)
common/libcommon.a(cmd_bootm.o)
                              arch/arm/lib/libarm.a(board.o) (load_addr)
common/libcommon.a(cmd_ddr_training.o)
                              arch/arm/lib/libarm.a(board.o) (check_ddr_training)
common/libcommon.a(cmd_getinfo.o)
                              (__u_boot_cmd_getinfo)
common/libcommon.a(cmd_help.o)
                              (__u_boot_cmd_help)
common/libcommon.a(cmd_load.o)
                              (__u_boot_cmd_loadb)
common/libcommon.a(cmd_mem.o)
                              (__u_boot_cmd_md)
common/libcommon.a(cmd_mii.o)
                              (__u_boot_cmd_mii)
common/libcommon.a(cmd_nand.o)
                              (__u_boot_cmd_nand)
common/libcommon.a(cmd_net.o)
                              (__u_boot_cmd_bootp)
common/libcommon.a(cmd_nvedit.o)
                              net/libnet.a(eth.o) (get_env_id)
common/libcommon.a(cmd_version.o)
                              (__u_boot_cmd_version)
common/libcommon.a(command.o)
                              common/libcommon.a(cmd_mem.o) (cmd_get_data_size)
common/libcommon.a(console.o)
                              arch/arm/lib/libarm.a(board.o) (printf)
common/libcommon.a(dlmalloc.o)
                              drivers/mtd/nand/libnand.a(nand_base.o) (free)
common/libcommon.a(env_common.o)
                              common/libcommon.a(cmd_nvedit.o) (env_get_addr)
common/libcommon.a(env_common_func.o)
                              common/libcommon.a(env_common.o) (env_get_char_spec)
common/libcommon.a(env_nand.o)
                              common/libcommon.a(env_common_func.o) (nand_env_cmn_func)
common/libcommon.a(exports.o)
                              arch/arm/lib/libarm.a(board.o) (jumptable_init)
common/libcommon.a(hi3716mv310_ddr_training_printf.o)
                              common/libcommon.a(cmd_ddr_training.o) (hi3716mv310_ddr_training_result)
common/libcommon.a(image.o)   common/libcommon.a(cmd_bootm.o) (genimg_get_os_name)
common/libcommon.a(main.o)    common/libcommon.a(bootstrap.o) (run_command)
common/libcommon.a(miiphyutil.o)
                              net/libnet.a(eth.o) (miiphy_init)
common/libcommon.a(nand_logif.o)
                              drivers/mtd/nand/libnand.a(hinfc610.o) (nand_logic_read)
common/libcommon.a(spiflash_logif.o)
                              drivers/mtd/nand/libnand.a(hinfc610.o) (spiflash_logic_read)
common/libcommon.a(stdio.o)   common/libcommon.a(console.o) (stdio_get_list)
common/libcommon.a(xyzModem.o)
                              common/libcommon.a(cmd_load.o) (xyzModem_error)
common/libcommon.a(ddr_training_entry.o)
                              common/libcommon.a(cmd_ddr_training.o) (hi3716mv310_ddr_training_data_start)
/home/zyq/share/HI3716STD310/source/boot/product/libproduct.a(main.o)
                              common/libcommon.a(main.o) (update_hdmi_status)
/home/zyq/share/HI3716STD310/source/boot/product/libproduct.a(schedule.o)
                              /home/zyq/share/HI3716STD310/source/boot/product/libproduct.a(main.o) (Loader_Main)
/home/zyq/share/HI3716STD310/source/boot/product/libproduct.a(boot_debug.o)
                              /home/zyq/share/HI3716STD310/source/boot/product/libproduct.a(main.o) (HI_LOG_GetModuleName)
/home/zyq/share/HI3716STD310/source/boot/product/libproduct.a(boot_mem.o)
                              /home/zyq/share/HI3716STD310/source/boot/product/libproduct.a(main.o) (HI_MMZ_Init)
/home/zyq/share/HI3716STD310/source/boot/product/libproduct.a(common_str.o)
                              /home/zyq/share/HI3716STD310/source/boot/product/libproduct.a(main.o) (simple_strtoul_2)
/home/zyq/share/HI3716STD310/source/boot/product/libproduct.a(drv_osal.o)
                              /home/zyq/share/HI3716STD310/source/boot/product/libproduct.a(boot_debug.o) (HI_OSAL_Vsnprintf)
/home/zyq/share/HI3716STD310/source/boot/product/libproduct.a(hi_adp_flash.o)
                              /home/zyq/share/HI3716STD310/source/boot/product/libproduct.a(schedule.o) (HI_Flash_GetInfo)
/home/zyq/share/HI3716STD310/source/boot/product/libproduct.a(hi_go_bliter.o)
                              /home/zyq/share/HI3716STD310/source/boot/product/libproduct.a(main.o) (HI_GO_Blit)
/home/zyq/share/HI3716STD310/source/boot/product/libproduct.a(hi_go_comm.o)
                              /home/zyq/share/HI3716STD310/source/boot/product/libproduct.a(hi_go_bliter.o) (HIGO_GetRealRect)
/home/zyq/share/HI3716STD310/source/boot/product/libproduct.a(hi_go_decoder.o)
                              /home/zyq/share/HI3716STD310/source/boot/product/libproduct.a(hi_go_comm.o) (HIGO_DeinitDecoder)
/home/zyq/share/HI3716STD310/source/boot/product/libproduct.a(hi_go_gdev.o)
                              /home/zyq/share/HI3716STD310/source/boot/product/libproduct.a(hi_go_comm.o) (HIGO_DinitDisplay)
/home/zyq/share/HI3716STD310/source/boot/product/libproduct.a(higo_memsurface.o)
                              /home/zyq/share/HI3716STD310/source/boot/product/libproduct.a(hi_go_decoder.o) (HIGO_FreeSurface)
/home/zyq/share/HI3716STD310/source/boot/product/libproduct.a(hi_go_surface.o)
                              /home/zyq/share/HI3716STD310/source/boot/product/libproduct.a(hi_go_gdev.o) (HI_GO_CreateSurfaceFromMem)
/home/zyq/share/HI3716STD310/source/boot/product/libproduct.a(higo_surface.o)
                              /home/zyq/share/HI3716STD310/source/boot/product/libproduct.a(hi_go_gdev.o) (Surface_CalculateBpp0)
/home/zyq/share/HI3716STD310/source/boot/product/libproduct.a(adp_jpeg.o)
                              /home/zyq/share/HI3716STD310/source/boot/product/libproduct.a(hi_go_decoder.o) (HIGO_ADP_JPGDecCommInfo)
/home/zyq/share/HI3716STD310/source/boot/product/libproduct.a(jpg_decctrl.o)
                              /home/zyq/share/HI3716STD310/source/boot/product/libproduct.a(adp_jpeg.o) (JPG_GetStatus)
/home/zyq/share/HI3716STD310/source/boot/product/libproduct.a(jpg_handle.o)
                              /home/zyq/share/HI3716STD310/source/boot/product/libproduct.a(jpg_decctrl.o) (JPG_Handle_Free)
/home/zyq/share/HI3716STD310/source/boot/product/libproduct.a(jpg_hdec.o)
                              /home/zyq/share/HI3716STD310/source/boot/product/libproduct.a(jpg_decctrl.o) (JPGDEC_InitHW)
/home/zyq/share/HI3716STD310/source/boot/product/libproduct.a(jpg_parse.o)
                              /home/zyq/share/HI3716STD310/source/boot/product/libproduct.a(jpg_decctrl.o) (JPGPARSE_GetImgInfo)
/home/zyq/share/HI3716STD310/source/boot/product/libproduct.a(drv_i2c.o)
                              /home/zyq/share/HI3716STD310/source/boot/product/libproduct.a(schedule.o) (HI_DRV_I2C_Init)
/home/zyq/share/HI3716STD310/source/boot/product/libproduct.a(drv_gpio.o)
                              /home/zyq/share/HI3716STD310/source/boot/product/libproduct.a(schedule.o) (HI_DRV_GPIO_Init)
/home/zyq/share/HI3716STD310/source/boot/product/libproduct.a(boot_pdm.o)
                              /home/zyq/share/HI3716STD310/source/boot/product/libproduct.a(main.o) (HI_PDM_SetSource)
/home/zyq/share/HI3716STD310/source/boot/product/libproduct.a(hdmi.o)
                              /home/zyq/share/HI3716STD310/source/boot/product/libproduct.a(main.o) (HI_DRV_HDMI_UpdateStatus)
/home/zyq/share/HI3716STD310/source/boot/product/libproduct.a(txvidp.o)
                              /home/zyq/share/HI3716STD310/source/boot/product/libproduct.a(hdmi.o) (siiSetVideoPath)
/home/zyq/share/HI3716STD310/source/boot/product/libproduct.a(infofrm.o)
                              /home/zyq/share/HI3716STD310/source/boot/product/libproduct.a(hdmi.o) (EnableInfoFrame)
/home/zyq/share/HI3716STD310/source/boot/product/libproduct.a(hdmitx.o)
                              /home/zyq/share/HI3716STD310/source/boot/product/libproduct.a(hdmi.o) (TX_Status)
/home/zyq/share/HI3716STD310/source/boot/product/libproduct.a(drv_hlviic.o)
                              /home/zyq/share/HI3716STD310/source/boot/product/libproduct.a(hdmi.o) (ReadByte_8BA)
/home/zyq/share/HI3716STD310/source/boot/product/libproduct.a(txvptbl.o)
                              /home/zyq/share/HI3716STD310/source/boot/product/libproduct.a(txvidp.o) (inMode)
/home/zyq/share/HI3716STD310/source/boot/product/libproduct.a(phy.o)
                              /home/zyq/share/HI3716STD310/source/boot/product/libproduct.a(hdmitx.o) (TX_PHY_DVIEncoder)
/home/zyq/share/HI3716STD310/source/boot/product/libproduct.a(de.o)
                              /home/zyq/share/HI3716STD310/source/boot/product/libproduct.a(hdmi.o) (UpdateTX_656)
/home/zyq/share/HI3716STD310/source/boot/product/libproduct.a(hi_keyled_inner.o)
                              /home/zyq/share/HI3716STD310/source/boot/product/libproduct.a(schedule.o) (HI_UNF_KEYLED_Init)
/home/zyq/share/HI3716STD310/source/boot/product/libproduct.a(cmd_otp.o)
                              (__u_boot_cmd_otp_getcustomerkey)
/home/zyq/share/HI3716STD310/source/boot/product/libproduct.a(otp.o)
                              /home/zyq/share/HI3716STD310/source/boot/product/libproduct.a(cmd_otp.o) (OTP_SetByte)
/home/zyq/share/HI3716STD310/source/boot/product/libproduct.a(unf_otp.o)
                              /home/zyq/share/HI3716STD310/source/boot/product/libproduct.a(cmd_otp.o) (HI_UNF_OTP_Init)
/home/zyq/share/HI3716STD310/source/boot/product/libproduct.a(boot_logo.o)
                              /home/zyq/share/HI3716STD310/source/boot/product/libproduct.a(main.o) (HI_LOGO_DecImg)
/home/zyq/share/HI3716STD310/source/boot/product/libproduct.a(boot_adp.o)
                              /home/zyq/share/HI3716STD310/source/boot/product/libproduct.a(main.o) (HI_ADP_GrcCreate)
/home/zyq/share/HI3716STD310/source/boot/product/libproduct.a(common_api.o)
                              /home/zyq/share/HI3716STD310/source/boot/product/libproduct.a(drv_gpio.o) (HI_DRV_SYS_GetChipVersion)
/home/zyq/share/HI3716STD310/source/boot/product/libproduct.a(drv_reg_common.o)
                              /home/zyq/share/HI3716STD310/source/boot/product/libproduct.a(common_api.o) (g_pstRegPeri)
/home/zyq/share/HI3716STD310/source/boot/product/libproduct.a(drv_grc_adpt.o)
                              /home/zyq/share/HI3716STD310/source/boot/product/libproduct.a(hi_go_gdev.o) (Grc_Drv_DeInit)
/home/zyq/share/HI3716STD310/source/boot/product/libproduct.a(optm_hifb.o)
                              /home/zyq/share/HI3716STD310/source/boot/product/libproduct.a(drv_grc_adpt.o) (OPTM_GfxSetWorkMode)
/home/zyq/share/HI3716STD310/source/boot/product/libproduct.a(optm_m_disp.o)
                              /home/zyq/share/HI3716STD310/source/boot/product/libproduct.a(optm_hifb.o) (OPTM_M_GetDispProgressive)
/home/zyq/share/HI3716STD310/source/boot/product/libproduct.a(vo_wrap.o)
                              /home/zyq/share/HI3716STD310/source/boot/product/libproduct.a(boot_adp.o) (HI_UNF_DISP_DeInit)
/home/zyq/share/HI3716STD310/source/boot/product/libproduct.a(optm_alg_api.o)
                              /home/zyq/share/HI3716STD310/source/boot/product/libproduct.a(optm_m_disp.o) (OPTM_AA_DeInitDispGmm)
/home/zyq/share/HI3716STD310/source/boot/product/libproduct.a(optm_alg.o)
                              /home/zyq/share/HI3716STD310/source/boot/product/libproduct.a(optm_alg_api.o) (OPTM_ALG_GetGfxScalerInfo)
/home/zyq/share/HI3716STD310/source/boot/product/libproduct.a(adp_gfx.o)
                              /home/zyq/share/HI3716STD310/source/boot/product/libproduct.a(hi_go_bliter.o) (HIGO_ADP_DeinitBlitter)
/home/zyq/share/HI3716STD310/source/boot/product/libproduct.a(adp_layer.o)
                              /home/zyq/share/HI3716STD310/source/boot/product/libproduct.a(hi_go_gdev.o) (HIGO_ADP_InitDisplay)
/home/zyq/share/HI3716STD310/source/boot/product/libproduct.a(hi_api_mmz.o)
                              /home/zyq/share/HI3716STD310/source/boot/product/libproduct.a(hi_go_decoder.o) (HI_MMB_Init)
/home/zyq/share/HI3716STD310/source/boot/product/libproduct.a(higo_blit.o)
                              /home/zyq/share/HI3716STD310/source/boot/product/libproduct.a(hi_go_bliter.o) (Bliter_FillRect)
/home/zyq/share/HI3716STD310/source/boot/product/libproduct.a(higo_io.o)
                              /home/zyq/share/HI3716STD310/source/boot/product/libproduct.a(adp_jpeg.o) (HIGO_ADP_IOGetLength)
/home/zyq/share/HI3716STD310/source/boot/product/libproduct.a(higo_memory.o)
                              /home/zyq/share/HI3716STD310/source/boot/product/libproduct.a(higo_memsurface.o) (HIGO_Malloc2)
/home/zyq/share/HI3716STD310/source/boot/product/libproduct.a(hi_api_tde.o)
                              /home/zyq/share/HI3716STD310/source/boot/product/libproduct.a(adp_gfx.o) (HI_TDE2_SetAlphaThresholdState)
/home/zyq/share/HI3716STD310/source/boot/product/libproduct.a(tde_osictl.o)
                              /home/zyq/share/HI3716STD310/source/boot/product/libproduct.a(hi_api_tde.o) (TdeOsiSetAlphaThresholdState)
/home/zyq/share/HI3716STD310/source/boot/product/libproduct.a(tde_osilist.o)
                              /home/zyq/share/HI3716STD310/source/boot/product/libproduct.a(tde_osictl.o) (TdeOsiListPutPhyBuff)
/home/zyq/share/HI3716STD310/source/boot/product/libproduct.a(tde_osr.o)
                              /home/zyq/share/HI3716STD310/source/boot/product/libproduct.a(hi_api_tde.o) (tde_osr_deinit)
/home/zyq/share/HI3716STD310/source/boot/product/libproduct.a(wmalloc.o)
                              /home/zyq/share/HI3716STD310/source/boot/product/libproduct.a(tde_osictl.o) (wgetphy)
/home/zyq/share/HI3716STD310/source/boot/product/libproduct.a(jpg_buf.o)
                              /home/zyq/share/HI3716STD310/source/boot/product/libproduct.a(jpg_decctrl.o) (JPGBUF_Init)
/home/zyq/share/HI3716STD310/source/boot/product/libproduct.a(jpg_drvapi.o)
                              /home/zyq/share/HI3716STD310/source/boot/product/libproduct.a(jpg_hdec.o) (JPGDRV_GetRegisterAddr)
/home/zyq/share/HI3716STD310/source/boot/product/libproduct.a(vmtables.o)
                              /home/zyq/share/HI3716STD310/source/boot/product/libproduct.a(de.o) (VModeTables)
/home/zyq/share/HI3716STD310/source/boot/product/libproduct.a(optm_disp_rwzb.o)
                              /home/zyq/share/HI3716STD310/source/boot/product/libproduct.a(optm_m_disp.o) (VDP_Set_SDateSrcCoef)
/home/zyq/share/HI3716STD310/source/boot/product/libproduct.a(optm_hal.o)
                              /home/zyq/share/HI3716STD310/source/boot/product/libproduct.a(optm_m_disp.o) (OPTM_HAL_SetCbmMixerPrio)
/home/zyq/share/HI3716STD310/source/boot/product/libproduct.a(tde_hal.o)
                              /home/zyq/share/HI3716STD310/source/boot/product/libproduct.a(tde_osilist.o) (TdeHalCtlIsIdleSafely)
board/hi3716mv310/libhi3716mv310.a(board.o)
                              arch/arm/lib/libarm.a(board.o) (dram_init)
board/hi3716mv310/libhi3716mv310.a(eth_cfg_setup.o)
                              board/hi3716mv310/libhi3716mv310.a(board.o) (eth_config_init)
lib/libgeneric.a(crc16.o)     common/libcommon.a(xyzModem.o) (cyg_crc16)
lib/libgeneric.a(crc32.o)     common/libcommon.a(cmd_mem.o) (crc32)
lib/libgeneric.a(ctype.o)     board/hi3716mv310/libhi3716mv310.a(eth_cfg_setup.o) (_ctype)
lib/libgeneric.a(display_options.o)
                              arch/arm/lib/libarm.a(ddr_layout.o) (print_size)
lib/libgeneric.a(div64.o)     common/libcommon.a(cmd_nand.o) (__div64_32)
lib/libgeneric.a(net_utils.o)
                              arch/arm/lib/libarm.a(board.o) (string_to_ip)
lib/libgeneric.a(string.o)    net/libnet.a(net.o) (strcpy)
lib/libgeneric.a(time.o)      drivers/mtd/nand/libnand.a(nand_base.o) (udelay)
lib/libgeneric.a(vsprintf.o)  arch/arm/lib/libarm.a(board.o) (simple_strtoul)
lib/libgeneric.a(vsnprintf.o)
                              net/libnet.a(eth.o) (snprintf)
lib/libgeneric.a(reserve_mem.o)
                              arch/arm/lib/libarm.a(board.o) (reserve_mem_init)
lib/libgeneric.a(parse_bootargs.o)
                              lib/libgeneric.a(reserve_mem.o) (parse_mem_args)
lib/libgeneric.a(match_table.o)
                              drivers/mtd/nand/libnand.a(hinfc610_gen.o) (reg2type)
lib/libgeneric.a(bootimg.o)   common/libcommon.a(cmd_bootm.o) (show_bootimg_header)
arch/arm/cpu/hi3716mv310/libhi3716mv310.a(cpu.o)
                              arch/arm/lib/libarm.a(cpu_info.o) (cpu_info)
arch/arm/cpu/hi3716mv310/libhi3716mv310.a(timer.o)
                              net/libnet.a(net.o) (get_timer)
arch/arm/lib/libarm.a(mmu.o)  arch/arm/cpu/hi3716mv310/libhi3716mv310.a(cpu.o) (icache_disable)
arch/arm/lib/libarm.a(bootm.o)
                              common/libcommon.a(cmd_bootm.o) (do_bootm_linux)
arch/arm/lib/libarm.a(tags.o)
                              arch/arm/lib/libarm.a(bootm.o) (get_param_tag_data)
arch/arm/lib/libarm.a(cache.o)
                              common/libcommon.a(cmd_load.o) (flush_cache)
arch/arm/lib/libarm.a(cache-cp15.o)
                              common/libcommon.a(cmd_mem.o) (dcache_disable)
arch/arm/lib/libarm.a(reset.o)
                              net/libnet.a(tftp.o) (do_reset)
arch/arm/lib/libarm.a(process.o)
                              arch/arm/lib/libarm.a(reset.o) (do_shutdown)
drivers/mtd/nand/libnand.a(hinfc_yaffs.o)
                              common/libcommon.a(cmd_nand.o) (yaffs_check)
drivers/mtd/nand/libnand.a(nand_util.o)
                              common/libcommon.a(cmd_nand.o) (nand_read_skip_bad)
drivers/mtd/spi/libspi_flash.a(spi_compatible.o)
                              common/libcommon.a(spiflash_logif.o) (get_spiflash_info)
drivers/net/hisfv300/libhisfv300.a(net-drv.o)
                              board/hi3716mv310/libhi3716mv310.a(board.o) (hieth_initialize)
drivers/net/hisfv300/libhisfv300.a(mii-drv.o)
                              drivers/net/hisfv300/libhisfv300.a(net-drv.o) (hieth_mdiobus_driver_exit)
drivers/net/hisfv300/libhisfv300.a(ctrl.o)
                              drivers/net/hisfv300/libhisfv300.a(net-drv.o) (hieth_irq_enable)
drivers/net/hisfv300/libhisfv300.a(glb.o)
                              drivers/net/hisfv300/libhisfv300.a(net-drv.o) (hieth_glb_preinit_dummy)
drivers/net/hisfv300/libhisfv300.a(mac.o)
                              drivers/net/hisfv300/libhisfv300.a(net-drv.o) (hieth_set_linkstat)
drivers/net/hisfv300/libhisfv300.a(mdio.o)
                              drivers/net/hisfv300/libhisfv300.a(mii-drv.o) (hieth_mdio_init)
drivers/net/hisfv300/libhisfv300.a(sys.o)
                              drivers/net/hisfv300/libhisfv300.a(net-drv.o) (hieth_sys_allstop)
drivers/net/hisfv300/libhisfv300.a(phy_fix.o)
                              drivers/net/hisfv300/libhisfv300.a(net-drv.o) (hisilicon_fephy_fix)
common/libcommon.a(flash_part.o)
                              /home/zyq/share/HI3716STD310/source/boot/product/libproduct.a(hi_adp_flash.o) (find_flash_part)
/opt/hisi-linux/x86-arm/arm-hisiv200-linux/bin/../lib/gcc/arm-hisiv200-linux-gnueabi/4.4.1/libgcc.a(_udivsi3.o)
                              net/libnet.a(tftp.o) (__aeabi_uidiv)
/opt/hisi-linux/x86-arm/arm-hisiv200-linux/bin/../lib/gcc/arm-hisiv200-linux-gnueabi/4.4.1/libgcc.a(_divsi3.o)
                              common/libcommon.a(cmd_mem.o) (__aeabi_idiv)
/opt/hisi-linux/x86-arm/arm-hisiv200-linux/bin/../lib/gcc/arm-hisiv200-linux-gnueabi/4.4.1/libgcc.a(_lshrdi3.o)
                              drivers/mtd/nand/libnand.a(nand_base.o) (__aeabi_llsr)
/opt/hisi-linux/x86-arm/arm-hisiv200-linux/bin/../lib/gcc/arm-hisiv200-linux-gnueabi/4.4.1/libgcc.a(_ashrdi3.o)
                              drivers/mtd/nand/libnand.a(nand_base.o) (__aeabi_lasr)
/opt/hisi-linux/x86-arm/arm-hisiv200-linux/bin/../lib/gcc/arm-hisiv200-linux-gnueabi/4.4.1/libgcc.a(_ashldi3.o)
                              drivers/mtd/nand/libnand.a(nand_base.o) (__aeabi_llsl)
/opt/hisi-linux/x86-arm/arm-hisiv200-linux/bin/../lib/gcc/arm-hisiv200-linux-gnueabi/4.4.1/libgcc.a(_aeabi_uldivmod.o)
                              /home/zyq/share/HI3716STD310/source/boot/product/libproduct.a(schedule.o) (__aeabi_uldivmod)
/opt/hisi-linux/x86-arm/arm-hisiv200-linux/bin/../lib/gcc/arm-hisiv200-linux-gnueabi/4.4.1/libgcc.a(_dvmd_lnx.o)
                              /opt/hisi-linux/x86-arm/arm-hisiv200-linux/bin/../lib/gcc/arm-hisiv200-linux-gnueabi/4.4.1/libgcc.a(_udivsi3.o) (__aeabi_idiv0)
/opt/hisi-linux/x86-arm/arm-hisiv200-linux/bin/../lib/gcc/arm-hisiv200-linux-gnueabi/4.4.1/libgcc.a(bpabi.o)
                              /opt/hisi-linux/x86-arm/arm-hisiv200-linux/bin/../lib/gcc/arm-hisiv200-linux-gnueabi/4.4.1/libgcc.a(_aeabi_uldivmod.o) (__gnu_uldivmod_helper)
/opt/hisi-linux/x86-arm/arm-hisiv200-linux/bin/../lib/gcc/arm-hisiv200-linux-gnueabi/4.4.1/libgcc.a(_divdi3.o)
                              /opt/hisi-linux/x86-arm/arm-hisiv200-linux/bin/../lib/gcc/arm-hisiv200-linux-gnueabi/4.4.1/libgcc.a(bpabi.o) (__divdi3)
/opt/hisi-linux/x86-arm/arm-hisiv200-linux/bin/../lib/gcc/arm-hisiv200-linux-gnueabi/4.4.1/libgcc.a(_udivdi3.o)
                              /opt/hisi-linux/x86-arm/arm-hisiv200-linux/bin/../lib/gcc/arm-hisiv200-linux-gnueabi/4.4.1/libgcc.a(bpabi.o) (__udivdi3)

Memory Configuration

Name             Origin             Length             Attributes
*default*        0x00000000         0xffffffff

Linker script and memory map

                0x00000000                . = 0x0
                0x00000000                . = ALIGN (0x4)

.text           0x80700000    0x6802c
 arch/arm/cpu/hi3716mv310/start.o(.text)
 .text          0x80700000     0x2960 arch/arm/cpu/hi3716mv310/start.o
                0x80700000                _start
                0x80702044                _blank_zone_start
                0x80702048                _blank_zone_end
                0x80702050                _armboot_start
                0x80702054                _bss_start
                0x80702058                _bss_end
                0x8070205c                _relocate
                0x807024d4                display_regv110_info
                0x80702558                display_regunknow_info
                0x80702584                _text_end
 arch/arm/cpu/hi3716mv310/lowlevel_init.o(.text)
 .text          0x80702960      0x2c4 arch/arm/cpu/hi3716mv310/lowlevel_init.o
                0x80702b60                display_register_info
                0x80702ba4                init_registers
 arch/arm/cpu/hi3716mv310/chip.o(.text)
 .text          0x80702c24       0x9c arch/arm/cpu/hi3716mv310/chip.o
                0x80702c24                get_chipid_reg
                0x80702c90                get_ca_vendor_reg
                0x80702c98                reset_cpu
 arch/arm/cpu/hi3716mv310/ddrphy_train.o(.text)
 .text          0x80702cc0      0x3c8 arch/arm/cpu/hi3716mv310/ddrphy_train.o
                0x80702cc0                DDRPHY_WRLV_TRAIN_ROUTE
                0x80702dc8                DDRPHY_GATE_TRAIN_ROUTE
                0x80702f18                DDRPHY_DATA_TRAIN_ROUTE
                0x80703014                ddr_training_info
 arch/arm/cpu/hi3716mv310/ddrphy_training.o(.text)
 .text          0x80703088      0x598 arch/arm/cpu/hi3716mv310/ddrphy_training.o
                0x807030f0                ddrphy_train_route
 arch/arm/cpu/hi3716mv310/ddr_dataeye_training.o(.text)
 .text          0x80703620      0xc8c arch/arm/cpu/hi3716mv310/ddr_dataeye_training.o
                0x80703784                byte_deskew_judge
                0x8070428c                ddr_dataeye_training
 arch/arm/cpu/hi3716mv310/irq.o(.text)
 *fill*         0x807042ac       0x14 00
 .text          0x807042c0      0x3a0 arch/arm/cpu/hi3716mv310/irq.o
                0x807042e0                irq_undefined_instruction
                0x80704360                irq_software_interrupt
                0x807043e0                irq_prefetch_abort
                0x80704460                irq_data_abort
                0x807044e0                irq_not_used
                0x80704560                irq_irq
                0x807045e0                irq_firq
 arch/arm/cpu/hi3716mv310/uart.o(.text)
 .text          0x80704660       0xf0 arch/arm/cpu/hi3716mv310/uart.o
                0x80704660                uart_early_init
                0x807046c0                uart_early_puts
                0x807046f0                uart_early_put_hex
                0x80704734                uart_early_putc
 *(.text)
 .text          0x80704750       0x64 arch/arm/cpu/hi3716mv310/libhi3716mv310.a(ddrphy_training_print.o)
                0x80704750                ddr_training_print
 .text          0x807047b4       0xb8 arch/arm/cpu/hi3716mv310/libhi3716mv310.a(hi3716mv310_ddr_training.o)
                0x807047b4                hi3716mv310_ddr_training
 .text          0x8070486c      0x2c8 arch/arm/lib/libarm.a(board.o)
                0x807048ec                hang
                0x80704900                start_armboot
 .text          0x80704b34      0x264 arch/arm/lib/libarm.a(interrupts.o)
                0x80704b34                enable_interrupts
                0x80704b38                disable_interrupts
                0x80704b40                show_regs
                0x80704c80                bad_mode
                0x80704c9c                do_irq
                0x80704cc0                do_fiq
                0x80704ce4                do_not_used
                0x80704d08                do_data_abort
                0x80704d2c                do_prefetch_abort
                0x80704d50                do_software_interrupt
                0x80704d74                do_undefined_instruction
 .text          0x80704d98      0x2c8 arch/arm/lib/libarm.a(ddr_layout.o)
                0x80704d98                get_ddr_free
                0x80704e28                show_ddr_layout
                0x80704ec4                insert_ddr_layout
 .text          0x80705060       0xec arch/arm/lib/libarm.a(ddr_size.o)
                0x80705060                get_ddr_size
 .text          0x8070514c      0x278 arch/arm/lib/libarm.a(cpu_info.o)
                0x807051d0                get_ca_type
                0x80705218                get_cpudevs
                0x80705248                get_cpu_version
                0x807052b0                get_max_ddr_size
                0x807052c0                get_cpu_name
                0x807052d0                get_timer_clock
                0x80705308                get_bootmedia
                0x80705354                get_boot_media
                0x80705360                get_chipid
                0x807053a0                get_ca_vendor
 .text          0x807053c4      0x86c net/libnet.a(eth.o)
                0x80705408                cpu_eth_init
                0x80705410                eth_get_dev
                0x80705420                eth_get_dev_by_index
                0x80705464                eth_get_dev_index
                0x807054b0                eth_halt
                0x807054e0                eth_send
                0x80705514                eth_rx
                0x8070553c                eth_get_name
                0x8070555c                eth_get_dev_by_name
                0x8070560c                eth_set_current
                0x807056a4                eth_try_another
                0x80705720                eth_unregister
                0x807057b8                eth_register
                0x80705814                eth_setenv_enetaddr
                0x80705850                eth_parse_enetaddr
                0x807058ac                eth_getenv_enetaddr
                0x807058cc                eth_getenv_enetaddr_by_index
                0x8070590c                eth_init
                0x807059d4                eth_write_hwaddr
                0x80705b08                eth_initialize
 .text          0x80705c30     0x1370 net/libnet.a(net.o)
                0x80705c58                NetSetHandler
                0x80705c68                NetCksum
                0x80705ca4                NetCksumOk
                0x80705cc4                copy_filename
                0x80705d1c                string_to_VLAN
                0x80705d60                getenv_VLAN
                0x80705d70                NetEthHdrSize
                0x80705dac                VLAN_to_string
                0x80705e04                ip_to_string
                0x80705e54                NetSetIP
                0x80705f38                NetSetEther
                0x80706044                NetSendPacket
                0x80706048                NetReceive
                0x807065a0                ArpRequest
                0x80706684                PingSend
                0x807067b0                NetSetTimeout
                0x807067e0                NetSendUDPPacket
                0x80706924                ArpSendReqFreq
                0x80706a14                NetStartAgain
                0x80706b1c                ArpTimeoutCheck
                0x80706b9c                NetLoop
 .text          0x80706fa0      0x170 net/libnet.a(rarp.o)
                0x80706fa0                RarpRequest
 .text          0x80707110      0xad8 net/libnet.a(tftp.o)
                0x80707828                print_IPaddr
                0x80707844                TftpStart
 .text          0x80707be8      0x5a4 net/libnet.a(bootp.o)
                0x80707f98                BootpRequest
 .text          0x8070818c       0x80 drivers/mtd/nand/libnand.a(nand.o)
                0x8070818c                nand_init
 .text          0x8070820c       0x84 drivers/mtd/nand/libnand.a(hinfc_init.o)
                0x8070820c                nand_get_rr_param
                0x80708238                nand_rr_param_init
                0x8070825c                board_nand_init
 .text          0x80708290     0x3e48 drivers/mtd/nand/libnand.a(nand_base.o)
                0x807082e4                nand_release_device
                0x807082fc                nand_read_byte
                0x80708330                nand_write_buf
                0x8070835c                nand_read_buf
                0x807083c4                nand_write_buf16
                0x807083f8                nand_read_buf16
                0x807084c0                nand_get_device
                0x807095c8                get_nand_info
                0x807095d4                nand_release
                0x807095fc                nand_scan_tail
                0x8070a814                nand_erase_nand
                0x8070ac9c                nand_wait_ready
                0x8070b86c                nand_scan_ident
                0x8070c0b8                nand_scan
 .text          0x8070c0d8     0x1804 drivers/mtd/nand/libnand.a(nand_bbt.o)
                0x8070c1d0                nand_isbad_bbt
                0x8070d0c4                nand_update_bbt
                0x8070d38c                nand_scan_bbt
                0x8070d818                nand_default_bbt
 .text          0x8070d8dc      0x210 drivers/mtd/nand/libnand.a(nand_ecc.o)
                0x8070d8dc                nand_calculate_ecc
                0x8070d9d0                nand_correct_data
 .text          0x8070daec        0x0 drivers/mtd/nand/libnand.a(nand_ids.o)
 .text          0x8070daec     0x1f34 drivers/mtd/nand/libnand.a(hinfc610.o)
                0x8070dafc                hinfc610_controller_enable
                0x8070dcfc                hinfc610_config_rw_latch
                0x8070e904                hinfc610_nand_rr_param_init
                0x8070eb38                hinfc610_force_ecc
                0x8070ece4                hinfc610_nand_get_rr_param
                0x8070ed1c                hinfc610_ecc_reg2type_intf
                0x8070ee90                hinfc610_ecc_type2reg_intf
                0x8070f490                hinfc610_init
                0x8070f710                hinfc610_nand_block_bad
 .text          0x8070fa20       0x60 drivers/mtd/nand/libnand.a(hinfc610_gen.o)
                0x8070fa20                hinfc610_ecc_reg2type
                0x8070fa38                hinfc610_page_reg2type
                0x8070fa50                hinfc610_ecc_type2reg
                0x8070fa68                hinfc610_page_type2reg
 .text          0x8070fa80       0x34 drivers/mtd/nand/libnand.a(hinfc610_read_retry.o)
                0x8070fa80                hinfc610_find_read_retry
 .text          0x8070fab4      0x354 drivers/mtd/nand/libnand.a(hinfc610_ecc_info.o)
                0x8070fb00                hinfc610_ecc_info_init
 .text          0x8070fe08      0x4b4 drivers/mtd/nand/libnand.a(hinfc610_sync.o)
                0x8070fe08                hinfc610_get_sync_info
 .text          0x807102bc       0x60 drivers/mtd/nand/libnand.a(hinfc620_gen.o)
                0x807102bc                hinfc620_ecc_reg2type
                0x807102d4                hinfc620_page_reg2type
                0x807102ec                hinfc620_ecc_type2reg
                0x80710304                hinfc620_page_type2reg
 .text          0x8071031c      0x450 drivers/mtd/nand/libnand.a(hinfc610_sync_onfi_23.o)
 .text          0x8071076c      0x454 drivers/mtd/nand/libnand.a(hinfc610_sync_toggle.o)
 .text          0x80710bc0       0x4c drivers/mtd/nand/libnand.a(hinfc610_rw_latch.o)
                0x80710bc0                get_hinfc_rw_latch
 .text          0x80710c0c        0x0 drivers/mtd/nand/libnand.a(hinfc610_rw_latch_hi3716mv310.o)
 .text          0x80710c0c       0x50 drivers/mtd/nand/libnand.a(hinfc_gen.o)
                0x80710c0c                nandpage_size2type
                0x80710c24                nand_page_name
                0x80710c40                nand_ecc_name
 .text          0x80710c5c      0x370 drivers/mtd/nand/libnand.a(nand_spl_ids.o)
                0x80710dd0                nand_spl_ids_register
                0x80710e00                nand_get_special_flash_type
 .text          0x80710fcc      0x894 drivers/mtd/nand/libnand.a(hinfc610_read_retry_hynix_bg_cdie.o)
 .text          0x80711860      0x314 drivers/mtd/nand/libnand.a(hinfc610_read_retry_hynix_bg_bdie.o)
 .text          0x80711b74      0x890 drivers/mtd/nand/libnand.a(hinfc610_read_retry_hynix_cg_adie.o)
 .text          0x80712404       0xec drivers/mtd/nand/libnand.a(hinfc610_read_retry_micron.o)
 .text          0x807124f0      0x2c8 drivers/mtd/nand/libnand.a(hinfc610_read_retry_samsung.o)
 .text          0x807127b8      0x390 drivers/mtd/nand/libnand.a(hinfc610_read_retry_toshiba_24nm.o)
 .text          0x80712b48      0x510 drivers/mtd/nand/libnand.a(hinfc610_read_retry_toshiba_19nm.o)
 .text          0x80713058       0xe4 drivers/serial/libserial.a(serial_pl01x.o)
                0x80713058                serial_init
                0x8071308c                serial_setbrg
                0x80713090                serial_tstc
                0x807130c4                serial_putc
                0x807130e8                serial_puts
                0x80713110                serial_putc_raw
                0x80713114                serial_getc
 .text          0x8071313c      0x2ec common/libcommon.a(bootstrap.o)
                0x8071313c                selfboot_from_udisk
                0x80713140                get_selfboot_type
                0x807131f8                download_process
                0x8071332c                download_boot_ca
                0x807133b0                download_boot_normal
                0x807133fc                download_boot
 .text          0x80713428       0x94 common/libcommon.a(cmd_boot.o)
                0x80713428                do_go_exec
                0x80713440                do_go
 .text          0x807134bc      0xaac common/libcommon.a(cmd_bootm.o)
                0x807134e0                arch_preboot_os
                0x807134e0                __arch_preboot_os
                0x807134e4                kern_load
                0x80713b2c                do_bootm_subcommand
                0x80713ce0                do_bootm
 .text          0x80713f68      0x4dc common/libcommon.a(cmd_ddr_training.o)
                0x80713f68                check_ddr_training
                0x807140fc                ddr_training
                0x807141d8                do_ddr_training
 .text          0x80714444      0x27c common/libcommon.a(cmd_getinfo.o)
                0x80714444                do_getinfo
 .text          0x807146c0       0x48 common/libcommon.a(cmd_help.o)
                0x807146c0                do_help
 .text          0x80714708      0xac0 common/libcommon.a(cmd_load.o)
                0x80714708                ktrans
                0x80714728                chk1
                0x80714794                k_data_init
                0x807147b4                k_data_save
                0x807147d8                k_data_restore
                0x807147fc                k_data_char
                0x8071484c                send_pad
                0x8071487c                s1_sendpacket
                0x807148a8                handle_send_packet
                0x80714a6c                send_nack
                0x80714acc                send_ack
                0x80714b2c                do_upload_serial_bin
                0x80714d6c                do_load_serial_bin
 .text          0x807151c8      0x92c common/libcommon.a(cmd_mem.o)
                0x807151c8                do_mem_base
                0x8071520c                do_mem_crc
                0x807152dc                do_mem_mtest
                0x8071547c                do_mem_loop
                0x80715574                do_mem_cp
                0x80715644                do_mem_cmp
                0x807157d0                do_mem_mw
                0x807159d8                do_mem_nm
                0x807159fc                do_mem_mm
                0x80715a20                do_mem_md
 .text          0x80715af4      0x79c common/libcommon.a(cmd_mii.o)
                0x80715b40                MII_dump_0_to_5
                0x80715df0                do_mii
 .text          0x80716290     0x1810 common/libcommon.a(cmd_nand.o)
                0x80716418                do_nandboot
                0x80716a10                do_nand
 .text          0x80717aa0      0x404 common/libcommon.a(cmd_net.o)
                0x80717aa0                do_ping
                0x80717e80                do_rarpb
                0x80717e8c                do_tftp
                0x80717e98                do_bootp
 .text          0x80717ea4      0x7d0 common/libcommon.a(cmd_nvedit.o)
                0x80717ea4                get_env_id
                0x80717eb4                envmatch
                0x80717f14                getenv_r
                0x80717fb4                do_saveenv
                0x80717fe4                getenv
                0x8071804c                _do_setenv
                0x80718484                do_setenv
                0x807184b0                setenv
                0x807185e4                do_printenv
 .text          0x80718674       0x20 common/libcommon.a(cmd_version.o)
                0x80718674                do_version
 .text          0x80718694      0x868 common/libcommon.a(command.o)
                0x80718694                cmd_get_data_size
                0x807186e4                find_cmd_tbl
                0x80718778                find_cmd
                0x807187a0                cmd_usage
                0x80718800                var_complete
                0x80718888                _do_help
                0x80718a44                install_auto_complete
                0x80718a64                cmd_auto_complete
 .text          0x80718efc      0x488 common/libcommon.a(console.o)
                0x80718f9c                fgetc
                0x80718fc4                ftstc
                0x80718fec                fputc
                0x80719014                fputs
                0x8071903c                disable_ctrlc
                0x80719054                had_ctrlc
                0x80719064                clear_ctrlc
                0x80719078                dbg
                0x80719084                console_init_f
                0x80719094                stdio_print_current_devices
                0x80719098                console_init_r
                0x80719174                search_device
                0x8071919c                console_assign
                0x807191dc                fprintf
                0x80719220                puts
                0x8071923c                vprintf
                0x8071926c                printf
                0x807192ac                serial_printf
                0x807192ec                putc
                0x80719308                tstc
                0x80719320                getc
                0x80719338                ctrlc
 .text          0x80719384     0x105c common/libcommon.a(dlmalloc.o)
                0x80719384                sbrk
                0x807193bc                malloc_trim
                0x80719488                free
                0x807196a8                cfree
                0x807196ac                malloc
                0x80719c84                memalign
                0x80719d90                pvalloc
                0x80719da8                valloc
                0x80719db4                malloc_usable_size
                0x80719df8                mallopt
                0x80719e64                calloc
                0x80719f44                realloc
                0x8071a390                mem_malloc_init
 .text          0x8071a3e0      0x288 common/libcommon.a(env_common.o)
                0x8071a3e0                env_get_char_memory
                0x8071a404                env_get_addr
                0x8071a428                set_default_env
                0x8071a468                env_relocate
                0x8071a4e4                env_get_char
                0x8071a514                env_complete
                0x8071a63c                env_crc_update
 .text          0x8071a668      0x128 common/libcommon.a(env_common_func.o)
                0x8071a668                env_get_char_spec
                0x8071a690                saveenv
                0x8071a6b8                env_get_media
                0x8071a6f8                env_init
                0x8071a758                env_relocate_spec
 .text          0x8071a790      0x254 common/libcommon.a(env_nand.o)
 .text          0x8071a9e4      0x1b0 common/libcommon.a(exports.o)
                0x8071a9e8                get_version
                0x8071a9f0                jumptable_init
 .text          0x8071ab94      0x46c common/libcommon.a(hi3716mv310_ddr_training_printf.o)
                0x8071ab94                hi3716mv310_ddr_training_result
 .text          0x8071b000      0x878 common/libcommon.a(image.o)
                0x8071b038                image_multi_count
                0x8071b060                get_table_entry_name
                0x8071b08c                genimg_get_os_name
                0x8071b0a4                genimg_get_arch_name
                0x8071b0bc                genimg_get_type_name
                0x8071b0d4                genimg_get_comp_name
                0x8071b0ec                genimg_has_config
                0x8071b0f4                genimg_get_image
                0x8071b138                genimg_get_format
                0x8071b1e8                image_multi_getimg
                0x8071b270                get_table_entry_id
                0x8071b2cc                genimg_get_comp_id
                0x8071b2e4                genimg_get_type_id
                0x8071b2fc                genimg_get_arch_id
                0x8071b314                genimg_get_os_id
                0x8071b32c                genimg_print_size
                0x8071b35c                image_print_contents
                0x8071b4f0                memmove_wd
                0x8071b4fc                getenv_bootm_low
                0x8071b530                getenv_yesno
                0x8071b554                getenv_bootm_size
                0x8071b588                image_check_dcrc
                0x8071b5d0                image_check_hcrc
                0x8071b620                boot_get_ramdisk
 .text          0x8071b878     0x12bc common/libcommon.a(main.o)
                0x8071b878                __show_boot_progress
                0x8071b878                show_boot_progress
                0x8071b87c                parse_line
                0x8071b908                run_command
                0x8071bed4                readline_into_buffer
                0x8071c828                readline
                0x8071c844                main_loop
 .text          0x8071cb34      0x720 common/libcommon.a(miiphyutil.o)
                0x8071cb40                miiphy_init
                0x8071cb60                miiphy_get_current_dev
                0x8071cb78                miiphy_listdev
                0x8071cbe4                miiphy_write
                0x8071cc70                miiphy_read
                0x8071ccfc                miiphy_link
                0x8071cd50                miiphy_is_1000base_x
                0x8071cd90                miiphy_duplex
                0x8071ced4                miiphy_speed
                0x8071cfec                miiphy_reset
                0x8071d094                miiphy_info
                0x8071d11c                miiphy_set_current_dev
                0x8071d178                miiphy_register
 .text          0x8071d254     0x1294 common/libcommon.a(nand_logif.o)
                0x8071d450                nand_logic_erase
                0x8071d758                nand_logic_read
                0x8071dc9c                nand_logic_write
                0x8071e2f8                nand_logic_close
                0x8071e324                nand_logic_open
 .text          0x8071e4e8      0x44c common/libcommon.a(spiflash_logif.o)
                0x8071e4e8                spiflash_logic_read
                0x8071e598                spiflash_logic_write
                0x8071e65c                spiflash_logic_erase
                0x8071e800                spiflash_logic_close
                0x8071e804                spiflash_logic_open
 .text          0x8071e934      0x190 common/libcommon.a(stdio.o)
                0x8071e934                stdio_get_list
                0x8071e940                stdio_clone
                0x8071e988                stdio_get_by_name
                0x8071e9ec                stdio_register
                0x8071ea2c                stdio_init
 .text          0x8071eac4      0xc6c common/libcommon.a(xyzModem.o)
                0x8071eac4                parse_num
                0x8071ec00                xyzModem_error
                0x8071ec20                xyzModem_stream_close
                0x8071ec70                CYGACC_COMM_IF_PUTC
                0x8071ec78                CYGACC_COMM_IF_GETC_TIMEOUT
                0x8071ecf4                xyzModem_stream_terminate
                0x8071edc8                xyzModem_stream_write
                0x8071f340                xyzModem_stream_read
                0x8071f5d4                xyzModem_stream_open
 .text          0x8071f730        0x0 common/libcommon.a(ddr_training_entry.o)
 .text          0x8071f730      0x9a0 /home/zyq/share/HI3716STD310/source/boot/product/libproduct.a(main.o)
                0x8071f730                update_hdmi_status
                0x8071f7bc                LockIdWord
                0x8071f8d4                SetLogLevel
                0x8071fab8                PRODUCT_DisplayInit
                0x8071fd00                Logo_Main
                0x8071ffe4                fastapp_entry
 .text          0x807200d0     0x1f7c /home/zyq/share/HI3716STD310/source/boot/product/libproduct.a(schedule.o)
                0x80720250                Customer_Boot
                0x80720558                Upgrd_OpenDataBlock
                0x80720a38                Loader_Check
                0x80721f44                Loader_Main
 .text          0x8072204c      0x358 /home/zyq/share/HI3716STD310/source/boot/product/libproduct.a(boot_debug.o)
                0x8072204c                HI_LOG_GetModuleName
                0x80722080                HI_LOG_SetLevel
                0x807220e8                HI_LogOut
                0x807221ac                HI_LOG_Init
 .text          0x807223a4       0xc0 /home/zyq/share/HI3716STD310/source/boot/product/libproduct.a(boot_mem.o)
                0x807223a4                HI_MMZ_Init
                0x807223ac                HI_MMZ_DeInit
                0x807223b4                HI_MMZ_GetInfoZoneAddr
                0x807223bc                HI_MMZ_Release
                0x807223c0                HI_MEM_Alloc
                0x807223e8                HI_MMZ_Alloc
 .text          0x80722464      0x434 /home/zyq/share/HI3716STD310/source/boot/product/libproduct.a(common_str.o)
                0x80722464                strspn_2
                0x807224d4                strpbrk_2
                0x80722538                strtok_2
                0x807225d4                simple_strtoul_2
                0x80722728                strcpy_2
                0x80722744                strncpy_2
                0x807227dc                strstr_2
 .text          0x80722898       0x90 /home/zyq/share/HI3716STD310/source/boot/product/libproduct.a(drv_osal.o)
                0x80722898                HI_OSAL_Vsnprintf
                0x807228ec                HI_OSAL_Snprintf
                0x8072291c                HI_OSAL_Strncat
                0x80722920                HI_OSAL_Strncmp
                0x80722924                HI_OSAL_Strncpy
 .text          0x80722928      0xb64 /home/zyq/share/HI3716STD310/source/boot/product/libproduct.a(hi_adp_flash.o)
                0x80722928                HI_Flash_GetInfo
                0x807229cc                HI_Flash_GetInfo_ByType
                0x80722a34                HI_Adpt_Nand_write
                0x80722ac0                HI_Adpt_Nand_read
                0x80722cb8                HI_Flash_Read
                0x80722cfc                HI_Flash_Erase64
                0x80722d34                HI_Flash_Erase
                0x80722d7c                HI_Flash_Write
                0x80722f9c                HI_Flash_Close
                0x80722fd0                HI_Flash_OpenByTypeAndAddr
                0x80723070                HI_Flash_OpenByTypeAndName
                0x80723414                HI_Flash_OpenByName
                0x80723454                HI_Flash_Open
 .text          0x8072348c      0x49c /home/zyq/share/HI3716STD310/source/boot/product/libproduct.a(hi_go_bliter.o)
                0x8072348c                HI_GO_Blit
                0x80723700                HI_GO_FillRect
                0x80723818                HIGO_DeinitBliter
                0x807238a4                HIGO_InitBliter
 .text          0x80723928      0x238 /home/zyq/share/HI3716STD310/source/boot/product/libproduct.a(hi_go_comm.o)
                0x80723928                HIGO_GetRealRect
                0x80723a40                HI_GO_Deinit
                0x80723aa0                HI_GO_Init
 .text          0x80723b60      0x800 /home/zyq/share/HI3716STD310/source/boot/product/libproduct.a(hi_go_decoder.o)
                0x80723b60                HIGO_DeinitDecoder
                0x80723be4                HI_GO_DestroyDecoder
                0x80723c08                HI_GO_CreateDecoder
                0x80723e14                HIGO_InitDecoder
                0x80723ed8                HI_GO_DecImgData
 .text          0x80724360      0xe50 /home/zyq/share/HI3716STD310/source/boot/product/libproduct.a(hi_go_gdev.o)
                0x80724360                HIGO_HigoFmtToGrcFmt
                0x807243f0                HIGO_DestroyLayerSuface
                0x807243f8                HIGO_FreeDisplayBuffer
                0x80724400                HIGO_DinitDisplay
                0x80724438                HI_GO_GetLayerSurface
                0x807244e8                LAYER_GetRefreshSurface
                0x80724580                HIGO_CheckFlushType
                0x80724624                HIGO_CheckScreen
                0x807246dc                HIGO_CheckDisplay
                0x8072476c                HIGO_CheckCanvas
                0x807247fc                HI_GO_SetLayerPos
                0x807248d8                HI_GO_DestroyLayer
                0x807248fc                HI_GO_GetLayerDefaultParam
                0x807249b0                HIGO_InitDisplay
                0x80724a34                HIGO_RefreshLayer
                0x80724a9c                HIGO_GetLayerSize
                0x80724b00                HI_GO_RefreshLayer
                0x80724c50                HIGO_CreateLayerSuface
                0x80724d54                LAYER_CheckFmt
                0x80724df0                HIGO_CheckParam
                0x80724f38                HIGO_DisplayInfoInit
                0x80724fe8                HI_GO_CreateLayer
 .text          0x807251b0      0x568 /home/zyq/share/HI3716STD310/source/boot/product/libproduct.a(higo_memsurface.o)
                0x807251b0                HIGO_FreeSurface
                0x807251e8                HIGO_CreateSurfaceFromMem
                0x807253a4                HIGO_CreateSurface
                0x80725608                HIGO_DeinitSurface
                0x80725694                HIGO_InitSurface
 .text          0x80725718      0x2d0 /home/zyq/share/HI3716STD310/source/boot/product/libproduct.a(hi_go_surface.o)
                0x80725718                HI_GO_GetSurfaceSize
                0x80725770                HI_GO_UnlockSurface
                0x80725774                HI_GO_LockSurface
                0x80725778                HI_GO_CreateSurfaceFromMem
                0x807258d0                HI_GO_FreeSurface
                0x807258e0                HI_GO_CreateSurface
 .text          0x807259e8      0x594 /home/zyq/share/HI3716STD310/source/boot/product/libproduct.a(higo_surface.o)
                0x807259e8                Surface_CalculateBpp0
                0x80725a68                Surface_CalculateBpp1
                0x80725ad0                Surface_CalculateBitsPerPixel0
                0x80725b50                Surface_CalculateBitsPerPixel1
                0x80725bc4                Surface_CalculateStride0
                0x80725c94                Surface_CalculateStride1
                0x80725d70                Surface_SetSurfaceType
                0x80725d7c                Surface_GetSurfaceSize
                0x80725da4                Surface_GetSurfacePixelFormat
                0x80725dcc                Surface_UnlockSurface
                0x80725e30                Surface_SetSurfacePalette
                0x80725e74                Surface_LockSurface
                0x80725e9c                Surface_SetSurfacePrivateData
                0x80725ebc                Surface_FreeSurface
                0x80725ec8                Surface_FreeSurfacePrivateData
                0x80725edc                Surface_CreateSurface
 .text          0x80725f7c      0x860 /home/zyq/share/HI3716STD310/source/boot/product/libproduct.a(adp_jpeg.o)
                0x80725f7c                ADP_ConverFMTJPG2HIGO
                0x80725fac                HIGO_ADP_JPGDecCommInfo
                0x80726010                HIGO_ADP_JPGDestroyDecoder
                0x80726038                HIGO_ADP_JPGCreateDecoder
                0x8072616c                ADP_JPGSendStream
                0x8072628c                HIGO_ADP_JPGDecImgData
                0x80726590                HIGO_ADP_JPGDecImgInfo
                0x807266a4                HIGO_ADP_JPGGetActualSize
 .text          0x807267dc     0x14c8 /home/zyq/share/HI3716STD310/source/boot/product/libproduct.a(jpg_decctrl.o)
                0x8072687c                JPG_GetStatus
                0x80726924                JPG_IsNeedStream
                0x80726b20                JPG_SendStream
                0x80726fe8                JPG_GetPicInfo
                0x80727264                JPG_Decode
                0x80727844                JPG_DestroyDecoder
                0x807278d4                JPG_CreateDecoder
 .text          0x80727ca4      0x438 /home/zyq/share/HI3716STD310/source/boot/product/libproduct.a(jpg_handle.o)
                0x80727ca4                JPG_Handle_Free
                0x80727dc0                JPG_Handle_GetInstance
                0x80727edc                JPG_Handle_Alloc
 .text          0x807280dc     0x19a4 /home/zyq/share/HI3716STD310/source/boot/product/libproduct.a(jpg_hdec.o)
                0x807283f0                JPGDEC_InitHW
                0x807284a0                JPGHDEC_Reset
                0x80728548                JPGHDEC_Start
                0x807286a0                JPGHDEC_Status
                0x807287f8                JPGHDEC_SendStream
                0x80728dcc                JPGHDEC_SetDecodeInfo
                0x80729788                JPGHDEC_Check
                0x807298b8                JPGHDEC_FlushBuf
                0x807298dc                JPGHDEC_DestroyInstance
                0x80729924                JPGHDEC_CreateInstance
 .text          0x80729a80     0x1a30 /home/zyq/share/HI3716STD310/source/boot/product/libproduct.a(jpg_parse.o)
                0x80729a80                JPGPARSE_GetImgInfo
                0x80729a98                JPGPARSEUpdateApp1
                0x80729c84                JPGPARSE_EndCheck
                0x80729ddc                JPGPARSE_DestroyInstance
                0x80729de0                JPGPARSE_CreateInstance
                0x80729ee8                JPGPARSEUpdateExif
                0x80729f94                JPGPARSEInitApp1
                0x80729fe4                JPGPARSE_Parse
 .text          0x8072b4b0     0x1178 /home/zyq/share/HI3716STD310/source/boot/product/libproduct.a(drv_i2c.o)
                0x8072b4b0                HI_DRV_I2C_Exit
                0x8072b574                HI_DRV_I2C_WriteConfig
                0x8072b6a4                I2C_DRV_WaitRead
                0x8072b758                DRV_WaitWriteEnd
                0x8072b824                HI_DRV_I2C_Read_SiLabs
                0x8072bbfc                HI_DRV_I2C_Read
                0x8072c070                HI_DRV_I2C_Write
                0x8072c3ec                HI_DRV_I2C_SetRate
                0x8072c4d0                HI_DRV_I2C_Init
 .text          0x8072c628      0x614 /home/zyq/share/HI3716STD310/source/boot/product/libproduct.a(drv_gpio.o)
                0x8072c628                HI_DRV_GPIO_Init
                0x8072c6f8                HI_DRV_GPIO_ReadBit
                0x8072c7f0                HI_DRV_GPIO_WriteBit
                0x8072c914                HI_DRV_GPIO_GetDirBit
                0x8072c9d8                HI_DRV_GPIO_SetDirBit
                0x8072caac                HI_DRV_GPIO_SetPin
                0x8072cb68                HI_DRV_GPIO_GetPin
 .text          0x8072cc3c     0x1ea8 /home/zyq/share/HI3716STD310/source/boot/product/libproduct.a(boot_pdm.o)
                0x8072cc3c                PDM_TransFomat
                0x8072ceec                HI_PDM_SetSource
                0x8072cf70                PDM_GetDefBaseParam
                0x8072d064                PDM_GetDefLogoInfo
                0x8072d268                HI_PDM_SetTagData
                0x8072d3a0                HI_PDM_AllocReserveMem
                0x8072d494                HI_PDM_GetDeviceInfo
                0x8072da48                PDM_ReadPlayData
                0x8072dc5c                HI_PDM_GetMceData
                0x8072dc70                PDM_ReadPlayParam
                0x8072de88                PDM_ReadBase
                0x8072e160                PDM_GetMceParamFromMem
                0x8072e230                HI_PDM_GetMceParam
                0x8072e330                PDM_GetLogoFromMem
                0x8072e400                PDM_GetHEADFromMem
                0x8072e4d0                HI_PDM_GetDispParam
                0x8072e5b8                PDM_ReadLogoData
                0x8072e7b4                HI_PDM_GetLogoData
                0x8072e7d0                PDM_ReadLogoParam
                0x8072e9e4                HI_PDM_GetLogoParam
 .text          0x8072eae4      0xd54 /home/zyq/share/HI3716STD310/source/boot/product/libproduct.a(hdmi.o)
                0x8072eae4                HI_UNF_HDMI_DeInit
                0x8072eaec                HI_DRV_HDMI_Init
                0x8072eb14                HI_DRV_HDMI_DeInit
                0x8072eb18                hdmi_Disp2EncFmt
                0x8072eb84                HI_UNF_HDMI_Start
                0x8072eb94                HI_DRV_HDMI_Start
                0x8072eb9c                HI_UNF_HDMI_Close
                0x8072ebb4                HI_DRV_HDMI_Close
                0x8072ebbc                HI_DRV_HDMI_UpdateStatus
                0x8072ed50                HI_UNF_HDMI_Init
                0x8072ed70                HDMI_Display
                0x8072f66c                HI_UNF_HDMI_Open
                0x8072f67c                HI_DRV_HDMI_Open
                0x8072f718                HI_DRV_HDMI
 .text          0x8072f838      0x5a0 /home/zyq/share/HI3716STD310/source/boot/product/libproduct.a(txvidp.o)
                0x8072f838                siiGetVideoPath
                0x8072f8f0                ConfigTXVideoMode
                0x8072fa3c                SetDeepColor
                0x8072fc40                siiSetVideoPath
 .text          0x8072fdd8      0x5cc /home/zyq/share/HI3716STD310/source/boot/product/libproduct.a(infofrm.o)
                0x8072fdd8                GetInfoFrameMapAddr
                0x8072fe60                EnableInfoFrame
                0x8072febc                Send4KInfoFrame
                0x80730118                SendAVIInfoFrame
 .text          0x807303a4      0x51c /home/zyq/share/HI3716STD310/source/boot/product/libproduct.a(hdmitx.o)
                0x807303a4                HW_ResetCtrl
                0x80730400                HW_ResetPhy
                0x80730448                TX_Status
                0x80730464                TX_CTRL_DVIEncoder
                0x807304f0                TX_SetHDMIMode
                0x80730590                SetIClk
                0x807305c4                WakeUpHDMITX
                0x80730608                ReleaseHDMITX_SWReset
                0x80730634                AssertHDMITX_SWReset
                0x80730664                Encoder_Adjust
                0x8073067c                DelayMS
                0x80730688                SW_ResetHDMITX
                0x807307cc                HW_ResetHDMITX
 .text          0x807308c0      0x16c /home/zyq/share/HI3716STD310/source/boot/product/libproduct.a(drv_hlviic.o)
                0x807308c0                ReadByte_8BA
                0x80730920                WriteByte_8BA
                0x80730974                ReadWord_8BA
                0x807309d8                WriteWord_8BA
 .text          0x80730a2c        0x0 /home/zyq/share/HI3716STD310/source/boot/product/libproduct.a(txvptbl.o)
 .text          0x80730a2c      0x668 /home/zyq/share/HI3716STD310/source/boot/product/libproduct.a(phy.o)
                0x80730a2c                TX_PHY_ReadRegister
                0x80730a4c                TX_PHY_GetOutPutEnable
                0x80730a74                TX_PHY_DVIEncoder
                0x80730a7c                TX_PHY_HighBandwidth
                0x80730ad0                TX_PHY_WriteRegister
                0x80730b44                TX_PHY_INIT
                0x80730ba0                TX_PHY_DisableHdmiOutput
                0x80730be0                TX_PHY_SwingCtrl
                0x80730c84                TX_PHY_SetDeepColor
                0x80730e64                TX_PHY_PowerDown
                0x80730f00                TX_PHY_EnableHdmiOutput
                0x80730fa0                Is3716Cv200ECVer
 .text          0x80731094      0x138 /home/zyq/share/HI3716STD310/source/boot/product/libproduct.a(de.o)
                0x80731094                UpdateTX_656
 .text          0x807311cc      0x4c4 /home/zyq/share/HI3716STD310/source/boot/product/libproduct.a(hi_keyled_inner.o)
                0x807311cc                HI_KEYLED_Open
                0x8073131c                HI_KEYLED_Close
                0x80731384                HI_KEYLED_Enable
                0x807313e0                HI_KEYLED_Disable
                0x8073142c                HI_KEYLED_Display
                0x807314a8                HI_UNF_KEYLED_Init
                0x807314b0                HI_UNF_KEYLED_DeInit
                0x807314b8                HI_UNF_KEY_Open
                0x807314bc                HI_UNF_KEY_Close
                0x807314c0                HI_UNF_LED_Open
                0x807314c4                HI_UNF_LED_Close
                0x807314c8                HI_UNF_KEY_IsKeyUp
                0x807314d0                HI_UNF_KEY_IsRepKey
                0x807314d8                HI_UNF_KEY_SetBlockTime
                0x807314e0                HI_UNF_LED_Display
                0x807314e4                HI_UNF_KEYLED_SelectType
                0x807314ec                HI_KEYLED_GetValue
                0x8073168c                HI_UNF_KEY_GetValue
 .text          0x80731690      0x59c /home/zyq/share/HI3716STD310/source/boot/product/libproduct.a(cmd_otp.o)
                0x80731690                OTP_BurnToSecureChipset
                0x807316e4                OTP_WriteAddress_test
                0x80731728                OTP_ReadAll_test
                0x80731800                OTP_Get_StbPrivData_test
                0x807319e4                OTP_Set_StbPrivData_test
                0x80731af0                OTP_Get_CustomerKey_test
 .text          0x80731c2c      0x55c /home/zyq/share/HI3716STD310/source/boot/product/libproduct.a(otp.o)
                0x80731c2c                OTP_V200_getChipID
                0x80731c58                OTP_GetMarketID
                0x80731c9c                OTP_GetR2RLadderLevel
                0x80731cec                OTP_Init
                0x80731d68                OTP_DeInit
                0x80731e4c                OTP_Read
                0x80731ea4                OTP_V200_getCustomerKey
                0x80731ef8                HAL_OTP_V200_ReadByte
                0x80731f1c                OTP_V200_Get_StbPrivData
                0x80731f50                OTP_ReadByte
                0x8073210c                OTP_V200_Set_StbPrivData
                0x8073212c                OTP_SetByte
 .text          0x80732188      0x49c /home/zyq/share/HI3716STD310/source/boot/product/libproduct.a(unf_otp.o)
                0x80732188                HI_UNF_OTP_DeInit
                0x80732198                HI_UNF_OTP_Init
                0x807321a8                HI_OTP_ReadByte
                0x807321c0                HI_OTP_Read
                0x807321d8                HI_OTP_WriteByte
                0x807321f8                HI_UNF_OTP_BurnToSecureChipset
                0x807323bc                HI_UNF_OTP_LockIDWord
                0x8073247c                HI_UNF_OTP_GetIDWordLockFlag
                0x807324f0                HI_UNF_OTP_GetStbPrivData
                0x80732524                HI_UNF_OTP_SetStbPrivData
                0x80732550                HI_UNF_OTP_Get_CustomerKey
 .text          0x80732624       0xf8 /home/zyq/share/HI3716STD310/source/boot/product/libproduct.a(boot_logo.o)
                0x80732624                HI_LOGO_DecImg
 .text          0x8073271c      0x54c /home/zyq/share/HI3716STD310/source/boot/product/libproduct.a(boot_adp.o)
                0x8073271c                HI_ADP_GrcCreate
                0x807328e4                HI_ADP_DispInit
 .text          0x80732c68      0x204 /home/zyq/share/HI3716STD310/source/boot/product/libproduct.a(common_api.o)
                0x80732c68                HI_DRV_SYS_GetChipVersion
 .text          0x80732e6c        0x0 /home/zyq/share/HI3716STD310/source/boot/product/libproduct.a(drv_reg_common.o)
 .text          0x80732e6c      0x514 /home/zyq/share/HI3716STD310/source/boot/product/libproduct.a(drv_grc_adpt.o)
                0x80732e6c                Grc_DRV_ColorFmtConvert
                0x80732e9c                Grc_DRV_GetGfxId
                0x80732eb8                Grc_Drv_DeInit
                0x80732ecc                Grc_Drv_Init
                0x80732ee0                Grc_DRV_CloseLayer
                0x80732ef0                Grc_DRV_LayerBitExtMode
                0x80732f08                Grc_DRV_LayerDefaultBitExtMode
                0x80732f1c                Grc_DRV_OpenLayer
                0x80732f9c                Grc_DRV_SetLayKeyMask
                0x80732fb4                Grc_Check_WBCMode
                0x80732fe8                Grc_DRV_UpdataLayerReg
                0x80733020                Grc_DRV_SetHDRect
                0x807330a0                Grc_DRV_SetLayerRect
                0x80733120                Grc_DRV_SetLayerAlpha
                0x807331a0                Grc_DRV_SetLayerDataFmt
                0x80733204                Grc_DRV_SetLayerStride
                0x80733244                Grc_DRV_SetLayerAddr
                0x80733284                Grc_DRV_EnableLayer
                0x807332c4                Grc_DRV_RefreshLayer
 .text          0x80733380     0x276c /home/zyq/share/HI3716STD310/source/boot/product/libproduct.a(optm_hifb.o)
                0x80733380                OPTM_GfxSetWorkMode
                0x80733430                OPTM_GfxGetWorkMode
                0x80733484                OPTM_GfxGetLayerHalId
                0x807334b8                OPTM_SetLogoMceEnable
                0x807334d8                OPTM_PixerFmtTransferToHalFmt
                0x80733508                OPTM_HalFmtTransferToPixerFmt
                0x80733584                OPTM_DispInfoCallbackUnderWbc
                0x807335b4                OPTM_GfxSetLayerAlpha
                0x80733680                OPTM_GfxSetLayerPreMult
                0x8073371c                OPTM_GfxSetEnable
                0x80733824                OPTM_GfxSetLayerAddr
                0x80733894                OPTM_GfxUpLayerReg
                0x80733928                OPTM_GfxMaskLayer
                0x80733b3c                OPTM_GfxSetLogoLayerEnable
                0x80733bc8                OPTM_GfxConfigWbcZme
                0x80733dd8                OPTM_GfxConfigSlvLayer
                0x80733f9c                OPTM_Wbc2Isr
                0x807341b4                OPTM_GFX_CloseWbc2
                0x80734264                OPTM_GFX_OpenWbc2
                0x80734390                OPTM_GfxSetClutAddr
                0x80734410                OPTM_GfxSetColorReg
                0x807344a0                OPTM_GfxSetLayerBitExtMode
                0x8073450c                OPTM_GfxSetLayKeyMask
                0x80734668                OPTM_GfxGetLayerRect
                0x807346f0                OPTM_GfxSetHDRect
                0x80734924                OPTM_GfxSetLayerRect
                0x80734ce0                OPTM_GfxSetLayerStride
                0x80734d68                OPTM_GfxGetEnable
                0x80734dcc                OPTM_GfxGetLayerZorder
                0x80734e90                OPTM_GfxSetLayerZorder
                0x80734f3c                OPTM_GfxCloseLayer
                0x807351e8                OPTM_GfxSetCsc
                0x8073537c                OPTM_GfxSetLayerDataFmt
                0x807354a8                OPTM_GfxOpenLayer
                0x8073587c                OPTM_GfxDeInit
                0x80735a08                OPTM_GfxInit
 .text          0x80735aec     0x63e0 /home/zyq/share/HI3716STD310/source/boot/product/libproduct.a(optm_m_disp.o)
                0x80735aec                OPTM_M_GetDateDefaultAttr
                0x80735b3c                OPTM_M_GetHDateDefaultAttr
                0x80735bb0                OPTM_M_SetHDateMcvn
                0x80735bec                OPTM_M_CheckDacMode
                0x80735e78                OPTM_M_GetDacLink
                0x80735f54                OPTM_M_GetSDacSel
                0x80736004                OPTM_M_GetHDacSel
                0x807360ac                OPTM_M_ReviseHDDateConnection
                0x807362f8                OPTM_M_SetVdacClk
                0x80736368                OPTM_M_GetDispBootSettingFlag
                0x80736388                OPTM_M_GetDispBootSetting
                0x807363ec                OPTM_M_GetDispRate
                0x8073641c                OPTM_M_GetDispProgressive
                0x80736460                OPTM_M_GetDispScreen
                0x807364a0                OPTM_M_GetGfxScreen
                0x80736500                OPTM_M_GetDispBtmFlag
                0x80736530                OPTM_M_GetTvFmtInfo
                0x8073684c                OPTM_M_SetVtthPosiFlag
                0x807368a8                OPTM_M_SetDispClk
                0x80736950                OPTM_M_GetLcdDefaultPara
                0x80736a04                OPTM_M_GetLayerDispOrderNumber
                0x80736a64                OPTM_M_SetDispCscMode
                0x80736aa4                OPTM_M_GetDispCscMode
                0x80736b00                OPTM_M_GetDispHdmiIntf
                0x80736b54                OPTM_M_GetLcdHVPForHdmi
                0x80736bec                OPTM_M_INT_SetDispInfoForGfx
                0x80736c60                OPTM_M_INT_RegisteTtx
                0x80736c8c                OPTM_M_INT_UnRegisteTtx
                0x80736cb4                OPTM_M_SetCgmsEnable
                0x80736ce8                OPTM_M_SetCgmsData
                0x80737050                OPTM_M_ISR_Isr
                0x80737988                OPTM_M_INT_UnRegiste
                0x80737a44                OPTM_M_INT_Registe
                0x80737b64                OPTM_M_INT_InitIrq
                0x80737bc4                OPTM_M_RestoreCommon
                0x80737cd4                OPTM_M_SaveCommon
                0x80737d80                OPTM_M_RestoreDXD
                0x80737dd4                OPTM_M_SetDispEnable
                0x80737e14                OPTM_M_SaveDXD
                0x80737e58                OPTM_M_SetHDateEnable
                0x80737e9c                OPTM_M_SetDateEnable
                0x80737ee0                OPTM_M_SetDispHdmiForLcd
                0x80737fe8                OPTM_M_SetDispHdmiIntf
                0x807380c4                OPTM_M_SetDispGammaCoef
                0x80738114                OPTM_M_SetDispGamma
                0x80738168                OPTM_M_SetDispHue
                0x807381f4                OPTM_M_SetDispSaturation
                0x80738280                OPTM_M_SetDispColorTemperature
                0x80738314                OPTM_M_SetDispContrast
                0x807383c8                OPTM_M_SetDispBright
                0x80738438                OPTM_M_SetDispBgc
                0x80738504                OPTM_M_SetDispOrder
                0x807386c0                OPTM_M_GetDispInfo
                0x80738748                OPTM_M_GetDispAttr
                0x8073878c                OPTM_M_GetHDateAttr
                0x807387e8                OPTM_M_GetDateAttr
                0x8073884c                OPTM_M_SetDispLcdPara
                0x80738aa4                OPTM_M_GetDispLcdFmt
                0x80739650                OPTM_M_GetDispEncFmt
                0x8073a19c                OPTM_M_SetVtthPosi
                0x8073a218                OPTM_M_SetLcdDefaultPara
                0x8073a3a0                OPTM_M_GetFmtSyncIndex
                0x8073a484                OPTM_M_SetVtthPosiFlagAndEffect
                0x8073a534                OPTM_M_SetDispSync
                0x8073a798                OPTM_M_SetDispEncFmt
                0x8073a8b4                OPTM_M_GetDispDefaultAttr
                0x8073a9e8                OPTM_M_SetDispIntfType
                0x8073aaf4                OPTM_M_SetDispAttr
                0x8073acf4                OPTM_M_DeInitDisp
                0x8073ad38                OPTM_M_InitDisp
                0x8073b06c                OPTM_M_BaseRegInit
                0x8073b078                OPTM_M_ReviseHDDacDelay
                0x8073b10c                OPTM_M_SetDefDacDelay
                0x8073b144                OPTM_M_EnableChopper
                0x8073b170                OPTM_M_SetVomuxDacSelect
                0x8073b25c                OPTM_M_SetHDateDacSel
                0x8073b2fc                OPTM_M_SetDateDacSel
                0x8073b3a0                OPTM_M_SetDacMode
                0x8073b728                OPTM_M_SetHDateSyncAdd
                0x8073b770                OPTM_M_SetHDateVidOut
                0x8073b7b8                OPTM_M_SetHDateCsc
                0x8073b800                OPTM_M_SetHDateSrc
                0x8073b848                OPTM_M_SetHDateLpf
                0x8073b890                OPTM_M_SetHDateSd
                0x8073b8d8                OPTM_M_SetHDatePola
                0x8073b920                OPTM_M_SetHDateFmt
                0x8073b9ec                OPTM_M_SetHDateAttr
                0x8073ba80                OPTM_M_SetDateScartEn
                0x8073bac4                OPTM_M_SetDateMcvn
                0x8073bbcc                OPTM_M_SetDateCGain
                0x8073bc10                OPTM_M_SetDateCoeff0
                0x8073bc60                OPTM_M_SetDateFmt
                0x8073be5c                OPTM_M_SetDateAttr
 .text          0x8073becc      0x9c4 /home/zyq/share/HI3716STD310/source/boot/product/libproduct.a(vo_wrap.o)
                0x8073becc                OPTM_ALG_API_GetGzmeHfirCoef
                0x8073bed4                HAL_SetParaUpd
                0x8073bedc                get_csc_space
                0x8073befc                Disp_GetDftDacMode
                0x8073bf30                DISP_ChangeLcdFmt
                0x8073bf64                Disp2Channel
                0x8073bf7c                HI_UNF_DISP_DeInit
                0x8073bf84                HI_UNF_DISP_Close
                0x8073bf8c                HI_UNF_DISP_Open
                0x8073bfa0                DISP_SetEnable
                0x8073bfa4                HI_UNF_DISP_Detach
                0x8073bfbc                HI_UNF_DISP_Attach
                0x8073bfd4                HI_UNF_DISP_SetHuePlus
                0x8073bfec                HI_UNF_DISP_SetSaturation
                0x8073c004                HI_UNF_DISP_SetContrast
                0x8073c01c                HI_UNF_DISP_SetBrightness
                0x8073c034                HI_UNF_DISP_SetBgColor
                0x8073c04c                HI_UNF_DISP_SetLcdPara
                0x8073c09c                Disp_GetAttr
                0x8073c0a0                Disp_SetLcdFmt
                0x8073c0e4                DISP_SetDacMode
                0x8073c1b4                HI_UNF_DISP_SetDacMode
                0x8073c1b8                Disp_SetTvFmt
                0x8073c3a0                DISP_SetIntfType
                0x8073c4b0                HI_UNF_DISP_SetFormat
                0x8073c670                DISP_Open
                0x8073c718                Disp_SetAttr
                0x8073c7ac                Disp_GetDftAttr
                0x8073c7b0                parse_csc_sapce
                0x8073c844                DISP_Init
                0x8073c880                HI_UNF_DISP_Init
 .text          0x8073c890     0x5658 /home/zyq/share/HI3716STD310/source/boot/product/libproduct.a(optm_alg_api.o)
                0x8073c9fc                OPTM_ALG_API_TranZoomCoefAlign128bit
                0x8073ca78                OPTM_ALG_API_TranZoomCoefAlign128bitTI
                0x8073cf7c                OPTM_AA_DeInitDispGmm
                0x8073cfac                SYS_GetChipVersion
                0x8073cfc0                OPTM_ALG_API_Rgb2Yuv
                0x8073d0f8                OPTM_ALG_API_CalcCscDc
                0x8073d1e4                OPTM_AA_GFX_VTIApi
                0x8073d2cc                OPTM_AA_VTIApi
                0x8073d39c                OPTM_ALG_TICoefInit
                0x8073d4c8                OPTM_ALG_API_CalcChroma_10bit
                0x8073d670                OPTM_ALG_API_CalcChroma_8bit
                0x8073d81c                OPTM_ALG_API_CalcChroma
                0x8073d8c4                OPTM_AA_SetGmmEnable
                0x8073f3c0                VouLoadGfxZoomCoefHV
                0x8073f7f8                VouLoadZoomCoefHV
                0x8073fae8                OPTM_AA_SetGmmCoef
                0x8074143c                OPTM_AA_InitDispGmm
                0x807414ac                OPTM_AA_DeInitGmmCoef
                0x807414e8                OPTM_AA_DeInitGzmeCoef
                0x8074150c                OPTM_AA_DeInitVzmeCoef
                0x80741530                OPTM_AA_InitGmmCoef
                0x807415c8                OPTM_AA_InitGzmeCoef
                0x8074167c                OPTM_AA_InitVzmeCoef
                0x8074172c                OPTM_AA_GfxZmeApi
                0x8074197c                OPTM_AA_VZmeApi
 .text          0x80741ee8     0x2828 /home/zyq/share/HI3716STD310/source/boot/product/libproduct.a(optm_alg.o)
                0x80741ee8                GetHfirCoef
                0x80741f60                GetVfirCoef
                0x807420dc                GetVerticalScalerOffset
                0x80742158                GetGfxHfirCoef
                0x8074224c                GetGfxVfirCoef
                0x8074238c                OPTM_ALG_GetGfxScalerInfo
                0x807425a0                IniFlag
                0x807425a8                OPTM_ALG_GetFormatType
                0x807425dc                GetFrameRateInfo
                0x807426e4                OPTM_ALG_CalCSCCoefTprtRGBtoYCbCr
                0x80742a48                OPTM_ALG_CalCSCCoefTprtYCbCrtoRGB
                0x80742e04                OPTM_ALG_CalCSCCoefTprtYCbCrtoYCbCr
                0x807434ec                OPTM_ALG_CalCSCCoefTprtRGBtoRGB_8bit
                0x80743984                OPTM_ALG_CalCSCCoefTprtRGBtoRGB
                0x80743dd0                Video_InitLTICTIInfo
                0x80743e5c                Gfx_InitLTICTIInfo
                0x80743ef8                Gfx_GetLTICTIInfo
                0x80744064                Video_GetLTICTIInfo
                0x80744334                GetScalerInfo
                0x8074459c                GetWndZmeInfo_HL8C4_VL4C4OR2
                0x80744640                GetWndZmeInfo_HL8C4_VL4C4
                0x807446a8                GetWndZmeInfo_HL8C4_VL6C4
 .text          0x80744710      0xf7c /home/zyq/share/HI3716STD310/source/boot/product/libproduct.a(adp_gfx.o)
                0x80744804                ADP_ConvertA2NOAFormat
                0x80744820                ADP_ConvertFormat
                0x80744c9c                HIGO_ADP_DeinitBlitter
                0x80744cc4                HIGO_ADP_InitBlitter
                0x80744d74                ADP_FillRect
                0x80745110                HIGO_ADP_GFXOperate
                0x80745130                ADP_GFXBlit
                0x80745604                HIGO_ADP_GFXStretchBlit
                0x80745648                HIGO_ADP_GFXBlit
 .text          0x8074568c      0x318 /home/zyq/share/HI3716STD310/source/boot/product/libproduct.a(adp_layer.o)
                0x8074568c                HIGO_ADP_InitDisplay
                0x807457a4                HIGO_ADP_CapabilityInquire
                0x807457d0                ADP_Layer_ConvertFieldInfo
                0x807458d0                HIGO_ADP_GetDefaultParam
 .text          0x807459a4       0xa8 /home/zyq/share/HI3716STD310/source/boot/product/libproduct.a(hi_api_mmz.o)
                0x807459a4                HI_MMB_Init
                0x807459cc                HI_MMB_New
                0x80745a48                HI_MMB_Map
 .text          0x80745a4c       0x6c /home/zyq/share/HI3716STD310/source/boot/product/libproduct.a(higo_blit.o)
                0x80745a4c                Bliter_FillRect
                0x80745ab0                Bliter_StretchBlit
                0x80745ab4                Bliter_Blit
 .text          0x80745ab8      0x5e8 /home/zyq/share/HI3716STD310/source/boot/product/libproduct.a(higo_io.o)
                0x80745aec                HIGO_ADP_IOGetPos
                0x80745b44                HIGO_ADP_IOGetLength
                0x80745b9c                HIGO_ADP_IOGetType
                0x80745bf8                HIGO_ADP_IOSeek
                0x80745c50                HIGO_ADP_IORead
                0x80745e74                HIGO_ADP_IODestroy
                0x80745e94                HIGO_ADP_IOCreate
 .text          0x807460a0      0x384 /home/zyq/share/HI3716STD310/source/boot/product/libproduct.a(higo_memory.o)
                0x807460a0                HIGO_Malloc2
                0x80746184                HIGO_Free2
                0x80746324                HIGO_DeInitMemory
                0x80746364                HIGO_InitMemory
 .text          0x80746424      0x284 /home/zyq/share/HI3716STD310/source/boot/product/libproduct.a(hi_api_tde.o)
                0x80746424                HI_TDE2_SetAlphaThresholdState
                0x80746454                HI_TDE2_SetAlphaThresholdValue
                0x80746484                HI_TDE2_MbBlit
                0x807464f8                HI_TDE2_EndJob
                0x80746554                HI_TDE2_QuickFill
                0x807465b0                HI_TDE2_Bitblit
                0x807465b4                HI_TDE2_BeginJob
                0x80746610                HI_TDE2_Close
                0x80746644                HI_TDE2_Open
 .text          0x807466a8     0x6bb8 /home/zyq/share/HI3716STD310/source/boot/product/libproduct.a(tde_osictl.o)
                0x80747898                TdeOsiSetAlphaThresholdState
                0x8074789c                TdeOsiSetAlphaThresholdValue
                0x807478a0                TdeOsiCancelJob
                0x807478a4                TdeOsiEndJob
                0x807478c0                TdeOsiBeginJob
                0x8074a044                TdeOsiQuickFill
                0x8074aa48                TdeOsiMbBlit
                0x8074caa0                TdeOsiBlit
 .text          0x8074d260      0x9dc /home/zyq/share/HI3716STD310/source/boot/product/libproduct.a(tde_osilist.o)
                0x8074d260                TdeOsiListPutPhyBuff
                0x8074d314                TdeOsiListGetPhyBuff
                0x8074d3c8                TdeOsiListAddNode
                0x8074d5c4                TdeOsiListBeginJob
                0x8074d6e0                TdeOsiListInit
                0x8074d944                TdeOsiListTerm
                0x8074d9d8                TdeOsiListSubmitJob
                0x8074db84                TdeOsiListCancelJob
 .text          0x8074dc3c       0x3c /home/zyq/share/HI3716STD310/source/boot/product/libproduct.a(tde_osr.o)
                0x8074dc3c                tde_osr_deinit
                0x8074dc4c                tde_osr_init
 .text          0x8074dc78      0x4e8 /home/zyq/share/HI3716STD310/source/boot/product/libproduct.a(wmalloc.o)
                0x8074dc78                freeUnit
                0x8074dcf4                wmemterm
                0x8074dd20                wgetphy
                0x8074dd6c                wgetvrt
                0x8074ddb8                wgetfreenum
                0x8074ddf4                wfree
                0x8074de8c                MemoryBlockInit
                0x8074dfe8                wmeminit
                0x8074e094                mallocUnit
                0x8074e100                wmalloc
 .text          0x8074e160      0x41c /home/zyq/share/HI3716STD310/source/boot/product/libproduct.a(jpg_buf.o)
                0x8074e160                JPGBUF_Init
                0x8074e18c                JPGBUF_Reset
                0x8074e1a0                JPGBUF_StepRdHead
                0x8074e1ac                JPGBUF_StepRdTail
                0x8074e1b8                JPGBUF_SetRdHead
                0x8074e1e4                JPGBUF_SetWrHead
                0x8074e204                JPGBUF_GetFreeLen
                0x8074e23c                JPGBUF_GetDataBtwRhRt
                0x8074e2b0                JPGBUF_GetDataBtwWhRh
                0x8074e324                JPGBUF_GetDataBtwWhRt
                0x8074e398                JPGBUF_GetBufInfo
                0x8074e3b4                JPGBUF_GetFreeInfo
                0x8074e40c                JPGBUF_Read
                0x8074e4cc                JPGBUF_Write
 .text          0x8074e57c      0x120 /home/zyq/share/HI3716STD310/source/boot/product/libproduct.a(jpg_drvapi.o)
                0x8074e57c                JPGDRV_GetRegisterAddr
                0x8074e610                JPGDRV_GetIntStatus
 .text          0x8074e69c        0x0 /home/zyq/share/HI3716STD310/source/boot/product/libproduct.a(vmtables.o)
 .text          0x8074e69c       0xb8 /home/zyq/share/HI3716STD310/source/boot/product/libproduct.a(optm_disp_rwzb.o)
                0x8074e69c                RWZB_GetSDateReviseCoefIndex
                0x8074e6d0                VDP_Set_SDateRwzbReviseSrcCoef
                0x8074e704                VDP_Set_SDateSrcCoef
                0x8074e72c                VDP_Set_HDateSrc13Coef
 .text          0x8074e754     0xf860 /home/zyq/share/HI3716STD310/source/boot/product/libproduct.a(optm_hal.o)
                0x8074e754                RegRead
                0x8074e75c                RegWrite
                0x8074e764                Vou_SetCbmMixerPrioReg
                0x8074e824                Vou_GetCbmMixerPrio
                0x8074e888                Vou_SetCbmMixerPrioNew
                0x8074e8f4                OPTM_HAL_SetCbmMixerPrio
                0x8074e9fc                OPTM_HAL_SetIfirCoef
                0x8074ea04                OPTM_HAL_BaseRegInit
                0x8074ea28                HAL_DeInitial
                0x8074ea5c                OPTM_HAL_GetVersion
                0x8074eaa4                HAL_GetChipsetVouVersion
                0x8074eb54                OPTM_HAL_SetVgaOutputOrder
                0x8074eba4                OPTM_HAL_SetDispChWnd
                0x8074ec18                OPTM_HAL_GetDispChWnd
                0x8074ec9c                OPTM_HAL_SetListFlag
                0x8074ecd8                OPTM_HAL_SetTrigger
                0x8074ed10                OPTM_HAL_GetDispWH
                0x8074edcc                Vou_GetDisplayChOfLayer
                0x8074ee18                Vou_SetGfxUpMode
                0x8074eed8                HAL_DISP_SetIntfSync
                0x8074f25c                OPTM_HAL_SetVideoMixerPrio
                0x8074f260                OPTM_HAL_DEBUG_ReadReg
                0x8074f29c                OPTM_HAL_DieLayerInReso
                0x8074f2f4                OPTM_HAL_CCSetSeq
                0x8074f324                OPTM_HAL_CCLineConfig
                0x8074f368                OPTM_HAL_CCDataConfig
                0x8074f39c                Vou_SetAcmEnableExt
                0x8074f4d8                Vou_SetAcmCoefExt
                0x8074fb68                Vou_GetCbmBkg
                0x8074fc0c                OPTM_HAL_GetMcvnState
                0x8074fc78                OPTM_HAL_SetMcvnEnable
                0x8074fccc                HAL_DISP_SetDacMux
                0x8074fe14                HAL_DISP_SetIntfEnable
                0x8074fe94                HAL_DISP_GetIntfEnable
                0x8074ff04                HAL_DISP_OpenIntf
                0x807503f4                HAL_DISP_CloseIntf
                0x80750468                HAL_DISP_SetIntfDataFmt
                0x807504b0                HAL_DISP_SetIntfCscCoefEx
                0x807506e8                HAL_DISP_SetIntfCscDcCoef
                0x80750818                HAL_DISP_SetIntfCscEna
                0x807508a8                HAL_DISP_SetVtThdMode
                0x80750ad0                HAL_DISP_SetVtThd
                0x80750cb0                HAL_DISP_EnableLayer
                0x80750e24                HAL_DISP_SetLayerCrAddr
                0x80750ecc                HAL_DISP_SetLayerAddr
                0x80751014                HAL_DISP_SetLayerDataFmt
                0x80751138                HAL_DISP_SetRegUpNoRatio
                0x80751268                HAL_DISP_SetReadMode
                0x807512f4                HAL_DISP_SetIntfClip
                0x8075147c                Vou_SetGfxAddr
                0x80751510                Vou_SetGfxStride
                0x8075161c                Vou_SetGfxExt
                0x807516dc                Vou_SetGfxPalpha
                0x807518f8                Vou_SetGfxPalphaRange
                0x807519ac                Vou_SetLayerGalpha
                0x80751ad8                Vou_SetGfxKey
                0x80751d44                Vou_SetGfxKeyThd
                0x80751ef0                Vou_SetGfxMskThd
                0x80751ff8                OPTM_HAL_SetGfxZorder
                0x80752054                OPTM_HAL_GetGfxZorder
                0x807520a4                Vou_SetCbmMixerVideoEn
                0x807520f0                Vou_SetCbmVmixerAlphaSel
                0x8075213c                Vou_SetCbmAttr
                0x807521b8                Vou_SetCbmBkg
                0x807522b8                Vou_SetLayerBkg
                0x80752374                HAL_SetFieldOrder
                0x807523f4                HAL_SetCoefAddr
                0x807525a4                HAL_SetLayerParaUpd
                0x80752758                HAL_SetDispParaUpd
                0x807527d8                HAL_SetZmeEnable
                0x80752bac                HAL_SetZmeFirEnable
                0x807530d8                HAL_SetMidEnable
                0x80753734                Vou_SetZmeSource
                0x807537a8                Vou_SetGfxZmeLink
                0x807537f4                HAL_DISP_SetIntfSyncMode
                0x8075382c                HAL_DISP_SetIntfBitWidth
                0x80753864                HAL_SetHfirOrder
                0x8075396c                HAL_SetZmeVerTap
                0x80753adc                HAL_SetZmeVerType
                0x80753ae0                HAL_SetZmePhase
                0x80754014                HAL_SetZmeReso
                0x8075425c                HAL_DieAddr
                0x80754288                Vou_SetDieEnable
                0x807542dc                Vou_SetDieOutSel
                0x80754328                Vou_SetDieChmOutSel
                0x80754374                Vou_SetDieChmMode
                0x807543c0                Vou_SetDieStpRst
                0x8075440c                Vou_SetDieStpUpdate
                0x80754484                Vou_SetDieDirInten
                0x807544d0                Vou_SetDieVerDirInten
                0x8075451c                Vou_SetDieVerMinInten
                0x80754568                Vou_SetDieScale
                0x807545b4                Vou_SetDieCkGain
                0x8075465c                Vou_SetDieCkGnRange
                0x80754704                Vou_SetDieCkMaxRange
                0x807547ac                Vou_SetDieDirMult
                0x80754af0                Vou_SetDieCkEnh
                0x80754b3c                Vou_SetDieMfMax
                0x80754b90                Vou_SetDieLumaMode
                0x80754bdc                Vou_SetDieLumaQTab
                0x80754c3c                Vou_SetDieLumaReqTab
                0x80754ca4                Vou_SetDieScaleRatio
                0x80754cf0                Vou_SetDieWinSize
                0x80754d3c                Vou_SetDieSceMax
                0x80754d88                Vou_SetDieQrstMax
                0x80754dd4                Vou_SetDieStEnable
                0x80754e8c                Vou_SetDieStAddr
                0x80754f44                Vou_SetDieAddr
                0x80755044                Vou_SetDieChmCcrEnable
                0x80755090                Vou_SetDieChmMaOffset
                0x807550dc                Vou_SetDieXchmMax
                0x80755128                Vou_SetDieCcrDetect
                0x807551a8                Vou_SetDieSimilar
                0x807551fc                Vou_SetDieDefThd
                0x807554d4                Vou_SetDieStMode
                0x807555e0                Vou_SetDieMidThd
                0x8075562c                Vou_SetPdDirMch
                0x80755678                Vou_SetPdChmDirMch
                0x807556c4                Vou_SetPdBlkPos
                0x80755788                Vou_SetPdStlBlkThd
                0x807557dc                Vou_SetPdDiffThd
                0x80755830                Vou_SetPdHistThd
                0x80755894                Vou_SetPdUmThd
                0x807558fc                Vou_SetPdCoringTkr
                0x80755950                Vou_SetPdCoringBlk
                0x807559a4                Vou_SetPdCoringNorm
                0x807559f8                Vou_SetPdPccHthd
                0x80755a4c                Vou_SetPdPccVthd
                0x80755ab0                Vou_SetPdSmtEnable
                0x80755afc                Vou_SetPdSmtThd
                0x80755b48                Vou_SetPdItDiffThd
                0x80755bb4                Vou_SetPdLasiThd
                0x80755c08                Vou_SetPdEdgeThd
                0x80755c5c                Vou_SetDieStWbcMd
                0x80755ca8                Vou_SetDieStUpdMd
                0x80755cf4                Vou_SetDieSadThd
                0x80755d40                Vou_GetPdStatic
                0x80755d64                Vou_SetWbcEnable
                0x80755e18                Vou_SetWbcAddr
                0x80755e88                Vou_SetWbcStride
                0x80755f54                Vou_SetWbcMd
                0x80755f98                Vou_SetWbcDfpSel
                0x80755fdc                Vou_SetWbcCropEx
                0x807561b0                Vou_SetWbcOutIntf
                0x80756300                Vou_SetWbcSpd
                0x80756368                Vou_SetWbcOutFmt
                0x8075641c                Vou_SetLnkWbAddr
                0x80756444                Vou_SetVerRatio
                0x80756550                Vou_SetHorRatio
                0x80756644                HAL_DISP_MuteEnable
                0x80756734                Vou_SetIfirMode
                0x807567b4                Vou_SetIfirCoef
                0x80756984                HAL_Initial
                0x80756c10                Vou_SetGfxPreMult
                0x80756cd0                Vou_SetGfxGmmEn
                0x80756d84                Vou_SetGfxReadMode
                0x80756e44                Vou_SetArbMode
                0x80756e80                Vou_SetRdBusId
                0x80756ebc                Vou_SetRdOutStd
                0x80756f10                Vou_SetWrOutStd
                0x80756f4c                Vou_SetAcmEnable
                0x80756ff4                Vou_SetAcmCoef
                0x80757348                Vou_SetAcmTestEnable
                0x8075738c                Vou_SetTimeOut
                0x80757414                Vou_SetAccThd
                0x8075752c                Vou_SetAccCtrl
                0x807575b8                Vou_SetAccWeightAddr
                0x807575e0                Vou_SetAccRst
                0x80757668                HAL_Layer_SetCscCoef_V300
                0x80757aa0                HAL_Layer_SetCscCoef
                0x80757aa4                HAL_Layer_AddCscODcCoef
                0x80757b20                HAL_Layer_SetCscDcCoef
                0x80757d94                OPTM_HAL_SetLayerCsc
                0x80757e9c                HAL_DISP_SetLayerInRect
                0x807580d0                HAL_DISP_SetLayerOutRect
                0x80758570                HAL_DISP_SetLayerDLPos
                0x80758698                HAL_DISP_SetLayerDFPos
                0x80758734                HAL_DISP_SetLayerDispRect
                0x80758868                Vou_SetGammaEnable
                0x807588b4                Vou_SetGammaAddr
                0x807588e0                HAL_DISP_SetIntMask
                0x80758920                HAL_DISP_DisIntMask
                0x80758960                HAL_DISP_SetIntEnable
                0x80758964                HAL_DISP_SetIntDisable
                0x80758968                HAL_DISP_GetIntSta
                0x8075899c                HAL_DISP_ClearIntSta
                0x807589c4                HAL_DISP_SetIntfClipEna
                0x80758a44                HAL_DISP_SetVSync
                0x80758aec                HAL_DISP_SetVSyncPlus
                0x80758b94                HAL_DISP_SetHSync
                0x80758c94                HAL_DISP_SetPlusWidth
                0x80758d30                HAL_DISP_SetPlusPhase
                0x80758dc8                OPTM_HAL_GetLayerEnable
                0x80758ec0                OPTM_HAL_GetGfxAddr
                0x80758f38                OPTM_HAL_GetGfxStride
                0x80758ff4                OPTM_HAL_GetLayerDataFmt
                0x807590c8                OPTM_HAL_GetGfxPreMult
                0x80759158                OPTM_HAL_GetGfxPalpha
                0x807592a8                OPTM_HAL_GetLayerGalpha
                0x80759380                OPTM_HAL_GetGfxKey
                0x80759574                OPTM_HAL_GetDispIoP
                0x807595d8                OPTM_HAL_DISP_GetLayerInRect
                0x80759740                OPTM_HAL_DISP_GetLayerOutRect
                0x80759974                HAL_DATE_Enable
                0x807599ac                HAL_DATE_PolaCtrl
                0x807599ec                HAL_DATE_VideoFmt
                0x80759a44                HAL_DATE_OutCtrl
                0x80759abc                OPTM_HAL_DateOutCtrl
                0x80759bd8                OPTM_HAL_SetDateBT470
                0x80759c24                OPTM_HAL_SetDateScart
                0x80759c70                OPTM_HAL_SetDateChlp_en
                0x80759cbc                OPTM_HAL_SetDateLumaDelay
                0x80759d08                OPTM_HAL_DISP_SetDateCgain
                0x80759d40                OPTM_HAL_DISP_SetDateRgbEn
                0x80759d78                OPTM_HAL_DISP_GetDateCoeff
                0x80759dd0                OPTM_HAL_DISP_SetDateCoeff
                0x80759e20                OPTM_HAL_DISP_GetCurrField
                0x80759e8c                OPTM_HAL_DISP_SetIntrMode
                0x80759ed8                OPTM_HAL_DISP_SetIntrThd2
                0x80759ee4                Vou_SetHdmiSel
                0x80759f28                Vou_SetSyncRev
                0x80759fb0                OPTM_HAL_DATE_OutCtrl
                0x8075a058                OPTM_HAL_HDATE_VideoFmt
                0x8075a090                OPTM_HAL_HDATE_VideoOutFmt
                0x8075a0c8                OPTM_HAL_SetDateSdSel
                0x8075a108                OPTM_HAL_SetDateLfpEnable
                0x8075a148                OPTM_HAL_HDATE_SyncAddCtrl
                0x8075a180                OPTM_HAL_HDATE_CscCtrl
                0x8075a1b8                OPTM_HAL_HDATE_SrcCtrl
                0x8075a1f0                OPTM_HAL_HDATE_PolaCtrl
                0x8075a258                OPTM_HAL_SetDacMux
                0x8075a25c                OPTM_HAL_PrintDebugInfo
                0x8075a260                OPTM_HAL_DhdDebugSet
                0x8075a2d8                hdate_1080p_30Hz_cfg
                0x8075a3b0                hdate_1080i_60Hz_274m_cfg
                0x8075a4a0                hdate_720p_50Hz_cfg
                0x8075a578                hdate_720p_60Hz_cfg
                0x8075a650                OPTM_HAL_SetDatePhaseDelta
                0x8075a6a4                OPTM_HAL_DATE_SetMcvn
                0x8075a778                DRV_VOU_TtxLineEnable
                0x8075a7ac                DRV_VOU_TtxSetMode
                0x8075a7dc                DRV_VOU_TtxSetSeq
                0x8075a80c                DRV_VOU_TtxSetAddr
                0x8075a840                DRV_VOU_TtxSetPackOff
                0x8075a870                DRV_VOU_TtxPiorityHighest
                0x8075a8a8                DRV_VOU_SetTtxFullPage
                0x8075a8d8                DRV_VOU_TtxSetReady
                0x8075a908                DRV_VOU_TtxGetReady
                0x8075a934                DRV_VOU_TtxEnableInt
                0x8075a964                DRV_VOU_TtxDisableInt
                0x8075a994                DRV_VOU_TtxIntStatus
                0x8075a9c0                DRV_VOU_TtxIntClear
                0x8075a9f0                DRV_VOU_CCSetSeq
                0x8075aa20                DRV_VOU_CCLineConfig
                0x8075aa5c                DRV_VOU_CCDataConfig
                0x8075aa90                DRV_VOU_WSSSetSeq
                0x8075aac0                DRV_VOU_WSSConfig
                0x8075aaf4                DRV_VOU_VbiFilterEnable
                0x8075ab24                Vou_SetVoDigitOutSyncSel
                0x8075ab68                Vou_GetDigitOutSyncSel
                0x8075aba0                HAL_DISP_GetIntfSync
                0x8075ada8                OPTM_HAL_SetHSDateSelMux
                0x8075ae3c                OPTM_HAL_GetCbmMixerPrio
                0x8075aeec                OPTM_HAL_GetRegUpState
                0x8075aff8                OPTM_HAL_SetDacGc
                0x8075b0fc                OPTM_HAL_SetDacChopper
                0x8075b144                OPTM_HAL_SetDacPower_v310
                0x8075b274                OPTM_HAL_SetDacPower
                0x8075b278                OPTM_HAL_SetDacDelay
                0x8075b40c                Vou_SetVbi_seq
                0x8075b45c                Vou_SetCgmsEnable
                0x8075b52c                HAL_DISP_SetDataMux
                0x8075b5dc                OPTM_HAL_SetDataMux
                0x8075b5e0                OPTM_HAL_SetLayerDeCmpEnable
                0x8075b6c8                OPTM_HAL_SetWbcCmpMode
                0x8075b748                OPTM_HAL_SetGfxCmpAddr
                0x8075b7f0                OPTM_HAL_SetGfxTriDimEnable
                0x8075b8c0                OPTM_HAL_SetGfxTriDimMode
                0x8075b990                OPTM_HAL_SetGfxSrcFromWbc2
                0x8075b9d4                Vou_SetTiEnable
                0x8075bae0                Vou_SetTiGainRatio
                0x8075bbec                Vou_SetTiMixRatio
                0x8075bcf8                Vou_SetTiHfThd
                0x8075bda8                Vou_SetTiHpCoef
                0x8075bfc4                Vou_SetTiCoringThd
                0x8075c0e0                Vou_SetTiGainCoef
                0x8075c1a8                Vou_SetTiSwing
                0x8075c2d8                Vou_SetCropReso
                0x8075c3ec                Vou_SetSrcReso
                0x8075c4b0                Vou_SetPdMovThd
                0x8075c504                Vou_SetPdMovCoringTkr
                0x8075c550                Vou_SetPdMovCoringBlk
                0x8075c59c                Vou_SetPdMovCoringNorm
                0x8075c5e8                Vou_SetPdIchdThd
                0x8075c634                Vou_SetDrawMode
                0x8075c6bc                OPTM_HAL_SetDatepYbpr_lpf_en
                0x8075c708                VDP_DATE_SetSrcCoef
                0x8075c954                VDP_DATE_SetCoefExtend
                0x8075c9ec                VDP_DATE_SetHTiming
                0x8075cacc                OPTM_HAL_DISP_SetDateDisIRE
                0x8075cb04                Vou_SetSrcMode
                0x8075cb84                Vou_SetFlipEn
                0x8075cc04                Vou_SetVc1Enable
                0x8075cc50                Vou_SetVc1MapCoef
                0x8075ccd0                Vou_SetVc1Profile
                0x8075cd1c                Vou_SetVc1MapFlg
                0x8075cddc                Vou_SetVc1RangeDfrm
                0x8075ce38                Vou_SetCgmsDataTypeB
                0x8075ceb8                Vou_SetCgmsDataTypeA
                0x8075cff4                HAL_GFX_RestoreDXD
                0x8075d054                HAL_GFX_SaveDXD
                0x8075d0d8                DRV_VOU_RestoreWbc
                0x8075d10c                DRV_VOU_SaveWbc
                0x8075d160                DRV_VOU_RestoreVXD
                0x8075d1b0                DRV_VOU_SaveVXD
                0x8075d234                HAL_DISP_RestoreCommon
                0x8075d2bc                HAL_DISP_SaveCommon
                0x8075d300                HAL_DISP_RestoreDXD
                0x8075d388                HAL_DISP_SaveDXD
                0x8075d430                Vou_SetGammaCoef
                0x8075d594                Vou_SetAccTab
                0x8075de20                OPTM_HAL_SetGammaCoef
 .text          0x8075dfb4     0x1d64 /home/zyq/share/HI3716STD310/source/boot/product/libproduct.a(tde_hal.o)
                0x8075dfb4                TdeHalSetClock
                0x8075dfd8                TdeHalCtlIsIdle
                0x8075e004                TdeHalCtlIsIdleSafely
                0x8075e08c                TdeHalCtlReset
                0x8075e0d8                TdeHalNodeInitChildNd
                0x8075e15c                TdeHalNodeGetNdSize
                0x8075e1d0                TdeHalNodeMakeNd
                0x8075e254                TdeHalNodeExecute
                0x8075e32c                TdeHalNodeSetSrc1
                0x8075e3a4                TdeHalNodeSetCsc
                0x8075e49c                TdeHalNodeSetTgt
                0x8075e564                TdeHalNodeSetBaseOperate
                0x8075e9f0                TdeHalNodeSetGlobalAlpha
                0x8075ea20                TdeHalNodeSetExpAlpha
                0x8075eaa8                TdeHalNodeSetAlphaBorder
                0x8075eadc                TdeHalNodeSetRop
                0x8075eb10                TdeHalNodeSetClutOpt
                0x8075eb5c                TdeHalNodeSetColorKey
                0x8075ed78                TdeHalNodeSetClipping
                0x8075ede4                TdeHalNodeSetFlicker
                0x8075eec8                TdeHalNodeSetResize
                0x8075f230                TdeHalNodeSetColorConvert
                0x8075f27c                TdeHalNodeAddChild
                0x8075f688                TdeHalNodeSetMbMode
                0x8075f6bc                TdeHalCurNode
                0x8075f7a8                TdeHalNodeSetSrcMbCbCr
                0x8075f7c4                TdeHalNodeSetSrc2
                0x8075f7cc                TdeHalNodeSetSrcMbY
                0x8075f830                TdeHalSetAlphaThreshold
                0x8075f850                TdeHalSetAlphaThresholdState
                0x8075f874                TdeHalNodeInitNd
                0x8075fbbc                TdeHalInit
                0x8075fc5c                TdeHalRelease
 .text          0x8075fd18      0x190 board/hi3716mv310/libhi3716mv310.a(board.o)
                0x8075fd18                board_eth_init
                0x8075fd1c                dram_init
                0x8075fde8                misc_init_r
                0x8075fdf8                board_init
 .text          0x8075fea8      0x620 board/hi3716mv310/libhi3716mv310.a(eth_cfg_setup.o)
                0x8075fea8                ethphy_intfname
                0x8075fec0                get_gpiobase
                0x8075fee8                eth_config_init
                0x80760090                get_eth_phygpio_str
                0x807600b4                get_eth_phymdio_str
                0x807600d8                get_eth_phyintf_str
                0x807600fc                get_eth_phyaddr_str
                0x80760120                ethphy_intf
                0x807601bc                get_eth_phyintf
                0x80760260                get_eth_phyaddr
                0x80760300                get_eth_phymdio
                0x807603a0                get_eth_phygpio
 .text          0x807604c8       0x44 lib/libgeneric.a(crc16.o)
                0x807604c8                cyg_crc16
 .text          0x8076050c      0x108 lib/libgeneric.a(crc32.o)
                0x8076050c                crc32_no_comp
                0x807605fc                crc32
                0x80760610                crc32_wd
 .text          0x80760614        0x0 lib/libgeneric.a(ctype.o)
 .text          0x80760614      0x358 lib/libgeneric.a(display_options.o)
                0x80760614                print_size
                0x8076074c                display_options
                0x8076076c                print_buffer
                0x807608bc                ultohstr
 .text          0x8076096c       0xd0 lib/libgeneric.a(div64.o)
                0x8076096c                __div64_32
 .text          0x80760a3c       0x7c lib/libgeneric.a(net_utils.o)
                0x80760a3c                string_to_ip
 .text          0x80760ab8      0x614 lib/libgeneric.a(string.o)
                0x80760ab8                strcpy
                0x80760ad4                strncpy
                0x80760afc                strcat
                0x80760b2c                strncat
                0x80760b88                strcmp
                0x80760bb8                strncmp
                0x80760c00                strchr
                0x80760c2c                strlen
                0x80760c4c                strrchr
                0x80760c84                strnlen
                0x80760cac                strspn
                0x80760cf0                strpbrk
                0x80760d28                strtok
                0x80760da4                strsep
                0x80760dd8                strswab
                0x80760e20                memset
                0x80760e94                bcopy
                0x80760ebc                memcpy
                0x80760f28                memmove
                0x80760f84                memcmp
                0x80760fbc                memscan
                0x80760fec                strstr
                0x8076104c                memchr
                0x80761078                strdup
 .text          0x807610cc       0x50 lib/libgeneric.a(time.o)
                0x807610cc                udelay
                0x807610f8                mdelay
 .text          0x8076111c      0xe04 lib/libgeneric.a(vsprintf.o)
                0x80761160                simple_strtoul
                0x80761218                simple_strtol
                0x80761240                ustrtoul
                0x807612b4                simple_strtoull
                0x807614a0                panic
                0x80761900                vsprintf
                0x80761efc                sprintf
 .text          0x80761f20      0xb3c lib/libgeneric.a(vsnprintf.o)
                0x807629e8                snprintf
                0x80762a2c                vsnrprintf
 .text          0x80762a5c      0x278 lib/libgeneric.a(reserve_mem.o)
                0x80762a5c                set_reserve_mem_bound
                0x80762a70                get_reserve_mem_bound
                0x80762a80                get_hidrv_reserve_mem
                0x80762a88                get_userapi_reserve_mem
                0x80762a90                show_reserve_mem
                0x80762b2c                reserve_mem_init
                0x80762c0c                reserve_mem_alloc
 .text          0x80762cd4      0x30c lib/libgeneric.a(parse_bootargs.o)
                0x80762cd4                skip_spaces
                0x80762d04                parameqn
                0x80762d54                parameq
                0x80762d78                memparse
                0x80762e08                parse_mem_args
 .text          0x80762fe0       0xd4 lib/libgeneric.a(match_table.o)
                0x80762fe0                reg2type
                0x8076300c                type2reg
                0x80763038                type2str
                0x80763064                str2type
 .text          0x807630b4      0x1d4 lib/libgeneric.a(bootimg.o)
                0x807630b4                show_bootimg_header
                0x807630e8                check_bootimg
                0x8076315c                bootimg_get_ramfs
                0x807631e8                bootimg_get_kernel
 .text          0x80763288       0xc0 arch/arm/cpu/hi3716mv310/libhi3716mv310.a(cpu.o)
                0x80763324                cleanup_before_linux
 .text          0x80763348      0x2bc arch/arm/cpu/hi3716mv310/libhi3716mv310.a(timer.o)
                0x80763348                set_timer
                0x80763358                reset_timer_masked
                0x8076337c                reset_timer
                0x80763380                get_timer_masked
                0x807633bc                get_timer
                0x807633d0                __udelay
                0x80763448                udelay_masked
                0x807634ac                get_ticks
                0x807634c0                get_tbclk
                0x807634d0                do_gettime
                0x80763564                do_getstrtime
                0x807635b0                timer_init
 .text          0x80763604      0x18c arch/arm/lib/libarm.a(mmu.o)
                0x80763604                mmu_pagedir_init
                0x80763620                mmu_pagedir_cached_range
                0x80763640                mmu_pagedir_nocached_range
                0x80763670                flush_cache_off
                0x80763684                mmu_startup
                0x807636b8                icache_disable
                0x807636c8                dcache_start
                0x807636d8                dcache_stop
                0x807636f4                __cache_flush_all
 .text          0x80763790      0x57c arch/arm/lib/libarm.a(bootm.o)
                0x80763790                do_bootm_linux
 .text          0x80763d0c      0x260 arch/arm/lib/libarm.a(tags.o)
                0x80763d0c                get_param_tag_data
                0x80763d84                set_param_data
 .text          0x80763f6c        0x4 arch/arm/lib/libarm.a(cache.o)
                0x80763f6c                flush_cache
 .text          0x80763f70       0xd4 arch/arm/lib/libarm.a(cache-cp15.o)
                0x80763f70                dcache_disable
                0x80763f74                dcache_enable
                0x80763fc0                mmu_init
 .text          0x80764044       0x3c arch/arm/lib/libarm.a(reset.o)
                0x80764044                do_reset
 .text          0x80764080       0x68 arch/arm/lib/libarm.a(process.o)
                0x80764080                do_shutdown
                0x807640b4                add_shutdown
 .text          0x807640e8      0x130 drivers/mtd/nand/libnand.a(hinfc_yaffs.o)
                0x807640e8                yaffs_check
 .text          0x80764218     0x1224 drivers/mtd/nand/libnand.a(nand_util.o)
                0x80764334                nand_read_skip_bad
                0x807645c4                nand_write_skip_bad
                0x807648b0                nand_write_yaffs_skip_bad
                0x80764b7c                nand_fill_ecc
                0x80764c00                nand_read_yaffs_skip_bad
                0x80764f68                nand_erase_opts
 .text          0x8076543c       0x24 drivers/mtd/spi/libspi_flash.a(spi_compatible.o)
                0x8076543c                spi_flash_free
                0x80765440                get_spiflash_info
                0x80765450                spi_flash_probe
 .text          0x80765460      0xb88 drivers/net/hisfv300/libhisfv300.a(net-drv.o)
                0x80765460                srandom
                0x80765478                random
                0x8076551c                hieth_initialize
                0x80765658                hieth_halt
                0x8076567c                hieth_send
                0x807657bc                hieth_recv
                0x80765904                random_ether_addr
                0x8076595c                string_to_mac
                0x80765a74                eth_set_host_mac_address
                0x80765b54                hieth_init
 .text          0x80765fe8      0x1e8 drivers/net/hisfv300/libhisfv300.a(mii-drv.o)
                0x80765fe8                hieth_mdiobus_driver_exit
                0x80765ff4                hieth_mdiobus_driver_init
                0x80766020                get_phy_device
                0x80766198                hieth_mdiobus_write
                0x807661b0                hieth_mdiobus_read
 .text          0x807661d0       0x8c drivers/net/hisfv300/libhisfv300.a(ctrl.o)
                0x807661e0                hieth_irq_enable
                0x807661f8                hieth_irq_disable
                0x80766210                hieth_read_irqstatus
                0x80766214                hieth_read_raw_irqstatus
                0x80766224                hieth_clear_irqstatus
                0x80766234                hieth_set_endian_mode
 .text          0x8076625c      0x1cc drivers/net/hisfv300/libhisfv300.a(glb.o)
                0x8076625c                hieth_glb_preinit_dummy
 .text          0x80766428      0x228 drivers/net/hisfv300/libhisfv300.a(mac.o)
                0x807664a8                hieth_set_linkstat
                0x807664ac                hieth_get_linkstat
                0x807664cc                hieth_set_mac_leadcode_cnt_limit
                0x80766518                hieth_set_mac_fc_interval
                0x8076655c                hieth_set_negmode
                0x80766560                hieth_get_negmode
                0x80766580                hieth_set_mii_mode
                0x807665bc                hieth_set_mac_trans_interval_bits
 .text          0x80766650      0x258 drivers/net/hisfv300/libhisfv300.a(mdio.o)
                0x80766650                hieth_mdio_reset
                0x807666b4                hieth_mdio_init
                0x807666c4                hieth_mdio_exit
                0x80766704                hieth_mdio_write
                0x807667b4                hieth_mdio_read
 .text          0x807668a8      0x1c8 drivers/net/hisfv300/libhisfv300.a(sys.o)
                0x807668c0                hieth_sys_allstop
                0x807668c4                hieth_sys_exit
                0x80766904                hieth_sys_init
                0x80766a60                hieth_sys_startup
 .text          0x80766a70      0x21c drivers/net/hisfv300/libhisfv300.a(phy_fix.o)
                0x80766a70                phy_expanded_write_bulk
                0x80766ba8                hisilicon_fephy_fix
                0x80766bc4                phy_expanded_write
                0x80766c28                phy_expanded_read
 .text          0x80766c8c      0x568 common/libcommon.a(flash_part.o)
                0x80766c8c                find_flash_part
                0x80766e20                cmdline_parts_init
                0x807671b8                flash_part_init
 .text          0x807671f4       0x20 /home/zyq/share/HI3716STD310/source/boot/fastboot/arch/arm/lib/eabi_compat.o
                0x807671f4                __aeabi_unwind_cpp_pr0
                0x807671f8                raise
 .text          0x80767214      0x20c /opt/hisi-linux/x86-arm/arm-hisiv200-linux/bin/../lib/gcc/arm-hisiv200-linux-gnueabi/4.4.1/libgcc.a(_udivsi3.o)
                0x80767214                __udivsi3
                0x80767214                __aeabi_uidiv
                0x80767400                __aeabi_uidivmod
 .text          0x80767420      0x240 /opt/hisi-linux/x86-arm/arm-hisiv200-linux/bin/../lib/gcc/arm-hisiv200-linux-gnueabi/4.4.1/libgcc.a(_divsi3.o)
                0x80767420                __aeabi_idiv
                0x80767420                __divsi3
                0x80767640                __aeabi_idivmod
 .text          0x80767660       0x1c /opt/hisi-linux/x86-arm/arm-hisiv200-linux/bin/../lib/gcc/arm-hisiv200-linux-gnueabi/4.4.1/libgcc.a(_lshrdi3.o)
                0x80767660                __aeabi_llsr
                0x80767660                __lshrdi3
 .text          0x8076767c       0x1c /opt/hisi-linux/x86-arm/arm-hisiv200-linux/bin/../lib/gcc/arm-hisiv200-linux-gnueabi/4.4.1/libgcc.a(_ashrdi3.o)
                0x8076767c                __ashrdi3
                0x8076767c                __aeabi_lasr
 .text          0x80767698       0x1c /opt/hisi-linux/x86-arm/arm-hisiv200-linux/bin/../lib/gcc/arm-hisiv200-linux-gnueabi/4.4.1/libgcc.a(_ashldi3.o)
                0x80767698                __ashldi3
                0x80767698                __aeabi_llsl
 .text          0x807676b4       0x3c /opt/hisi-linux/x86-arm/arm-hisiv200-linux/bin/../lib/gcc/arm-hisiv200-linux-gnueabi/4.4.1/libgcc.a(_aeabi_uldivmod.o)
                0x807676b4                __aeabi_uldivmod
 .text          0x807676f0       0x10 /opt/hisi-linux/x86-arm/arm-hisiv200-linux/bin/../lib/gcc/arm-hisiv200-linux-gnueabi/4.4.1/libgcc.a(_dvmd_lnx.o)
                0x807676f0                __aeabi_ldiv0
                0x807676f0                __aeabi_idiv0
 .text          0x80767700       0x80 /opt/hisi-linux/x86-arm/arm-hisiv200-linux/bin/../lib/gcc/arm-hisiv200-linux-gnueabi/4.4.1/libgcc.a(bpabi.o)
                0x80767700                __gnu_uldivmod_helper
                0x80767740                __gnu_ldivmod_helper
 .text          0x80767780      0x480 /opt/hisi-linux/x86-arm/arm-hisiv200-linux/bin/../lib/gcc/arm-hisiv200-linux-gnueabi/4.4.1/libgcc.a(_divdi3.o)
                0x80767780                __divdi3
 .text          0x80767c00      0x42c /opt/hisi-linux/x86-arm/arm-hisiv200-linux/bin/../lib/gcc/arm-hisiv200-linux-gnueabi/4.4.1/libgcc.a(_udivdi3.o)
                0x80767c00                __udivdi3
                0x8076802c                __text_end = .

.glue_7         0x8076802c        0x0
 .glue_7        0x00000000        0x0 linker stubs

.glue_7t        0x8076802c        0x0
 .glue_7t       0x00000000        0x0 linker stubs

.vfp11_veneer   0x8076802c        0x0
 .vfp11_veneer  0x00000000        0x0 linker stubs

.v4_bx          0x8076802c        0x0
 .v4_bx         0x00000000        0x0 linker stubs
                0x807680b0                . = (. + 0x84)
                0x807680b0                . = ALIGN (0x4)

.rodata         0x807680b0    0x13a06
 *(SORT(.rodata*))
 .rodata        0x807680b0       0x34 arch/arm/lib/libarm.a(board.o)
                0x807680b0                version_string
 .rodata        0x807680e4       0x80 arch/arm/lib/libarm.a(interrupts.o)
 .rodata        0x80768164        0x8 drivers/mtd/nand/libnand.a(nand.o)
 .rodata        0x8076816c       0x7c drivers/mtd/nand/libnand.a(nand_base.o)
 .rodata        0x807681e8      0x100 drivers/mtd/nand/libnand.a(nand_ecc.o)
 .rodata        0x807682e8       0xa0 drivers/mtd/nand/libnand.a(nand_spl_ids.o)
 .rodata        0x80768388        0xc drivers/mtd/nand/libnand.a(hinfc610_read_retry_hynix_bg_cdie.o)
 .rodata        0x80768394       0x20 drivers/mtd/nand/libnand.a(hinfc610_read_retry_hynix_bg_bdie.o)
 .rodata        0x807683b4        0xc drivers/mtd/nand/libnand.a(hinfc610_read_retry_hynix_cg_adie.o)
 .rodata        0x807683c0       0x3c drivers/mtd/nand/libnand.a(hinfc610_read_retry_samsung.o)
 .rodata        0x807683fc        0x8 drivers/mtd/nand/libnand.a(hinfc610_read_retry_toshiba_24nm.o)
 .rodata        0x80768404       0x28 drivers/mtd/nand/libnand.a(hinfc610_read_retry_toshiba_19nm.o)
 .rodata        0x8076842c      0x200 common/libcommon.a(bootstrap.o)
 .rodata        0x8076862c       0x18 common/libcommon.a(cmd_bootm.o)
 .rodata        0x80768644       0x58 common/libcommon.a(command.o)
 .rodata        0x8076869c       0x20 common/libcommon.a(xyzModem.o)
 .rodata        0x807686bc       0x3c /home/zyq/share/HI3716STD310/source/boot/product/libproduct.a(main.o)
 .rodata        0x807686f8       0xa8 /home/zyq/share/HI3716STD310/source/boot/product/libproduct.a(schedule.o)
 .rodata        0x807687a0       0x10 /home/zyq/share/HI3716STD310/source/boot/product/libproduct.a(boot_mem.o)
 .rodata        0x807687b0      0x100 /home/zyq/share/HI3716STD310/source/boot/product/libproduct.a(common_str.o)
 .rodata        0x807688b0       0x1c /home/zyq/share/HI3716STD310/source/boot/product/libproduct.a(adp_jpeg.o)
 .rodata        0x807688cc        0xc /home/zyq/share/HI3716STD310/source/boot/product/libproduct.a(jpg_decctrl.o)
 .rodata        0x807688d8      0x140 /home/zyq/share/HI3716STD310/source/boot/product/libproduct.a(jpg_parse.o)
 .rodata        0x80768a18       0xa0 /home/zyq/share/HI3716STD310/source/boot/product/libproduct.a(drv_i2c.o)
 .rodata        0x80768ab8       0x84 /home/zyq/share/HI3716STD310/source/boot/product/libproduct.a(drv_gpio.o)
 .rodata        0x80768b3c      0x178 /home/zyq/share/HI3716STD310/source/boot/product/libproduct.a(boot_pdm.o)
 .rodata        0x80768cb4       0xf4 /home/zyq/share/HI3716STD310/source/boot/product/libproduct.a(hdmi.o)
 .rodata        0x80768da8       0x44 /home/zyq/share/HI3716STD310/source/boot/product/libproduct.a(txvidp.o)
 .rodata        0x80768dec       0x24 /home/zyq/share/HI3716STD310/source/boot/product/libproduct.a(infofrm.o)
 .rodata        0x80768e10       0x44 /home/zyq/share/HI3716STD310/source/boot/product/libproduct.a(hdmitx.o)
 .rodata        0x80768e54       0x1c /home/zyq/share/HI3716STD310/source/boot/product/libproduct.a(txvptbl.o)
                0x80768e54                inRGB24
                0x80768e58                inRGBDVO12
                0x80768e5c                inYCbCr24
                0x80768e60                inYC24
                0x80768e64                inYCMuxed12
                0x80768e68                inYCMuxed656_12
                0x80768e6c                inYC656_24
 .rodata        0x80768e70       0x98 /home/zyq/share/HI3716STD310/source/boot/product/libproduct.a(phy.o)
 .rodata        0x80768f08       0x10 /home/zyq/share/HI3716STD310/source/boot/product/libproduct.a(cmd_otp.o)
 .rodata        0x80768f18       0x30 /home/zyq/share/HI3716STD310/source/boot/product/libproduct.a(otp.o)
 .rodata        0x80768f48       0x74 /home/zyq/share/HI3716STD310/source/boot/product/libproduct.a(unf_otp.o)
 .rodata        0x80768fbc       0x10 /home/zyq/share/HI3716STD310/source/boot/product/libproduct.a(boot_logo.o)
 .rodata        0x80768fcc       0x24 /home/zyq/share/HI3716STD310/source/boot/product/libproduct.a(boot_adp.o)
 .rodata        0x80768ff0       0x5c /home/zyq/share/HI3716STD310/source/boot/product/libproduct.a(common_api.o)
 .rodata        0x8076904c       0x20 /home/zyq/share/HI3716STD310/source/boot/product/libproduct.a(drv_grc_adpt.o)
 .rodata        0x8076906c      0x640 /home/zyq/share/HI3716STD310/source/boot/product/libproduct.a(optm_hifb.o)
                0x807690ac                g_stGfxCap
 .rodata        0x807696ac      0x198 /home/zyq/share/HI3716STD310/source/boot/product/libproduct.a(optm_m_disp.o)
 .rodata        0x80769844       0x9c /home/zyq/share/HI3716STD310/source/boot/product/libproduct.a(vo_wrap.o)
 .rodata        0x807698e0       0x68 /home/zyq/share/HI3716STD310/source/boot/product/libproduct.a(optm_alg_api.o)
 .rodata        0x80769948     0x3a64 /home/zyq/share/HI3716STD310/source/boot/product/libproduct.a(optm_alg.o)
                0x80769a14                coefficient6_cubic
                0x80769bc4                coefficient6_1M
                0x80769d74                coefficient6_1_5M
                0x80769f24                coefficient6_2M
                0x8076a0d4                coefficient6_3_5M
                0x8076a284                coefficient6_3M
                0x8076a434                coefficient6_3_25M
                0x8076a5e4                coefficient6_4M
                0x8076a794                coefficient6_5M
                0x8076a944                coefficient6_6M
                0x8076aaf4                coefficient_lanczos2_6tap
                0x8076aca4                coefficient_guassian_6tap_6M
                0x8076ae54                coefficient6_5_8M
                0x8076b004                coefficient6_5_6M
                0x8076b1b4                coefficient8_6M_a30
                0x8076b3f4                coefficient8_5M_a25
                0x8076b634                coefficient8_4M_a25
                0x8076b874                coefficient8_3M_a19
                0x8076bab4                coefficient6_6M_a25
                0x8076bc64                coefficient6_5M_a25
                0x8076be14                coefficient6_4M_a20
                0x8076bfc4                coefficient6_3M_a15
                0x8076c174                coefficient6_675M_a25
                0x8076c324                coefficient4_6M_a15
                0x8076c444                coefficient4_6M_a19
                0x8076c564                coefficient4_5M_a10
                0x8076c684                coefficient4_5M_a15
                0x8076c7a4                coefficient4_675M_a20
                0x8076c8c4                coefficient4_4_5M_a15
                0x8076c9e4                coefficient4_4M_a15
                0x8076cb04                coefficient2_6M_1_3
                0x8076cc24                coefficient2_5M_1_0
                0x8076cd44                coefficient2_4M_0_1
                0x8076ce64                s32Coeff_Bilinear
                0x8076cef4                s32Coeff_guass2_6M_2_5
                0x8076cf84                s32Coeff_guass2_6_75M_a0_5
                0x8076d014                s32Coeff_guass2_6M_a0_5
                0x8076d0a4                s32Coeff_guass2_6M_a2_0
                0x8076d134                s32Coefficient2_4M_0_1
                0x8076d1c4                SIN_TABLE
                0x8076d2b8                COS_TABLE
 .rodata        0x8076d3ac      0x1d4 /home/zyq/share/HI3716STD310/source/boot/product/libproduct.a(adp_layer.o)
                0x8076d3d0                s_BitField
 .rodata        0x8076d580      0x40c /home/zyq/share/HI3716STD310/source/boot/product/libproduct.a(tde_osictl.o)
 .rodata        0x8076d98c       0x3c /home/zyq/share/HI3716STD310/source/boot/product/libproduct.a(tde_osilist.o)
 .rodata        0x8076d9c8       0x18 /home/zyq/share/HI3716STD310/source/boot/product/libproduct.a(wmalloc.o)
 .rodata        0x8076d9e0      0x654 /home/zyq/share/HI3716STD310/source/boot/product/libproduct.a(vmtables.o)
                0x8076d9e0                N_Val
                0x8076da1c                VModeTables
 .rodata        0x8076e034       0x64 /home/zyq/share/HI3716STD310/source/boot/product/libproduct.a(optm_disp_rwzb.o)
 .rodata        0x8076e098       0x48 /home/zyq/share/HI3716STD310/source/boot/product/libproduct.a(optm_hal.o)
 .rodata        0x8076e0e0      0x56c /home/zyq/share/HI3716STD310/source/boot/product/libproduct.a(tde_hal.o)
 .rodata        0x8076e64c       0x24 board/hi3716mv310/libhi3716mv310.a(eth_cfg_setup.o)
 .rodata        0x8076e670      0x200 lib/libgeneric.a(crc16.o)
 .rodata        0x8076e870      0x400 lib/libgeneric.a(crc32.o)
 .rodata        0x8076ec70       0x20 lib/libgeneric.a(display_options.o)
 .rodata        0x8076ec90       0x24 lib/libgeneric.a(vsprintf.o)
                0x8076ec90                hex_asc
 .rodata        0x8076ecb4       0x28 lib/libgeneric.a(vsnprintf.o)
                0x8076ecb4                hex2ascii_data
 .rodata        0x8076ecdc       0x18 arch/arm/cpu/hi3716mv310/libhi3716mv310.a(cpu.o)
 .rodata        0x8076ecf4       0x10 arch/arm/lib/libarm.a(tags.o)
 .rodata        0x8076ed04     0x17c8 drivers/net/hisfv300/libhisfv300.a(phy_fix.o)
 .rodata.str1.4
                0x807704cc      0x2bc /home/zyq/share/HI3716STD310/source/boot/product/libproduct.a(main.o)
 .rodata.str1.4
                0x80770788      0x943 /home/zyq/share/HI3716STD310/source/boot/product/libproduct.a(schedule.o)
                                0x948 (size before relaxing)
 *fill*         0x807710cb        0x1 00
 .rodata.str1.4
                0x807710cc       0x7c /home/zyq/share/HI3716STD310/source/boot/product/libproduct.a(boot_debug.o)
                                 0x84 (size before relaxing)
 .rodata.str1.4
                0x80771148       0x3e /home/zyq/share/HI3716STD310/source/boot/product/libproduct.a(boot_mem.o)
                                 0x40 (size before relaxing)
 *fill*         0x80771186        0x2 00
 .rodata.str1.4
                0x80771188       0xa7 /home/zyq/share/HI3716STD310/source/boot/product/libproduct.a(hi_adp_flash.o)
                                 0xb4 (size before relaxing)
 *fill*         0x8077122f        0x1 00
 .rodata.str1.4
                0x80771230       0x38 /home/zyq/share/HI3716STD310/source/boot/product/libproduct.a(hi_go_bliter.o)
 .rodata.str1.4
                0x80771268       0x45 /home/zyq/share/HI3716STD310/source/boot/product/libproduct.a(hi_go_comm.o)
                                 0x6c (size before relaxing)
 *fill*         0x807712ad        0x3 00
 .rodata.str1.4
                0x807712b0       0x22 /home/zyq/share/HI3716STD310/source/boot/product/libproduct.a(hi_go_decoder.o)
                                 0x48 (size before relaxing)
 *fill*         0x807712d2        0x2 00
 .rodata.str1.4
                0x807712d4       0x12 /home/zyq/share/HI3716STD310/source/boot/product/libproduct.a(hi_go_gdev.o)
                                 0x44 (size before relaxing)
 *fill*         0x807712e6        0x2 00
 .rodata.str1.4
                0x807712e8       0x17 /home/zyq/share/HI3716STD310/source/boot/product/libproduct.a(higo_memsurface.o)
                                 0x3c (size before relaxing)
 *fill*         0x807712ff        0x1 00
 .rodata.str1.4
                0x80771300       0x15 /home/zyq/share/HI3716STD310/source/boot/product/libproduct.a(hi_go_surface.o)
                                 0x3c (size before relaxing)
 *fill*         0x80771315        0x3 00
 .rodata.str1.4
                0x80771318       0x14 /home/zyq/share/HI3716STD310/source/boot/product/libproduct.a(higo_surface.o)
                                 0x38 (size before relaxing)
 .rodata.str1.4
                0x8077132c       0x10 /home/zyq/share/HI3716STD310/source/boot/product/libproduct.a(adp_jpeg.o)
                                 0x34 (size before relaxing)
 .rodata.str1.4
                0x8077133c       0x36 /home/zyq/share/HI3716STD310/source/boot/product/libproduct.a(jpg_decctrl.o)
                                 0x5c (size before relaxing)
 *fill*         0x80771372        0x2 00
 .rodata.str1.4
                0x80771374       0x15 /home/zyq/share/HI3716STD310/source/boot/product/libproduct.a(jpg_hdec.o)
                                 0x44 (size before relaxing)
 *fill*         0x80771389        0x3 00
 .rodata.str1.4
                0x8077138c       0xbb /home/zyq/share/HI3716STD310/source/boot/product/libproduct.a(drv_i2c.o)
                                 0xbc (size before relaxing)
 *fill*         0x80771447        0x1 00
 .rodata.str1.4
                0x80771448      0x189 /home/zyq/share/HI3716STD310/source/boot/product/libproduct.a(drv_gpio.o)
                                0x18c (size before relaxing)
 *fill*         0x807715d1        0x3 00
 .rodata.str1.4
                0x807715d4      0x405 /home/zyq/share/HI3716STD310/source/boot/product/libproduct.a(boot_pdm.o)
                                0x41c (size before relaxing)
 *fill*         0x807719d9        0x3 00
 .rodata.str1.4
                0x807719dc      0x511 /home/zyq/share/HI3716STD310/source/boot/product/libproduct.a(hdmi.o)
                                0x514 (size before relaxing)
 *fill*         0x80771eed        0x3 00
 .rodata.str1.4
                0x80771ef0      0x16d /home/zyq/share/HI3716STD310/source/boot/product/libproduct.a(txvidp.o)
                                0x170 (size before relaxing)
 *fill*         0x8077205d        0x3 00
 .rodata.str1.4
                0x80772060       0x14 /home/zyq/share/HI3716STD310/source/boot/product/libproduct.a(infofrm.o)
 .rodata.str1.4
                0x80772074       0xa7 /home/zyq/share/HI3716STD310/source/boot/product/libproduct.a(hdmitx.o)
                                 0xa8 (size before relaxing)
 *fill*         0x8077211b        0x1 00
 .rodata.str1.4
                0x8077211c      0x203 /home/zyq/share/HI3716STD310/source/boot/product/libproduct.a(phy.o)
                                0x204 (size before relaxing)
 *fill*         0x8077231f        0x1 00
 .rodata.str1.4
                0x80772320      0x202 /home/zyq/share/HI3716STD310/source/boot/product/libproduct.a(cmd_otp.o)
                                0x214 (size before relaxing)
 *fill*         0x80772522        0x2 00
 .rodata.str1.4
                0x80772524       0x36 /home/zyq/share/HI3716STD310/source/boot/product/libproduct.a(otp.o)
                                 0x38 (size before relaxing)
 *fill*         0x8077255a        0x2 00
 .rodata.str1.4
                0x8077255c      0x262 /home/zyq/share/HI3716STD310/source/boot/product/libproduct.a(unf_otp.o)
                                0x280 (size before relaxing)
 *fill*         0x807727be        0x2 00
 .rodata.str1.4
                0x807727c0       0x48 /home/zyq/share/HI3716STD310/source/boot/product/libproduct.a(boot_logo.o)
 .rodata.str1.4
                0x80772808      0x17e /home/zyq/share/HI3716STD310/source/boot/product/libproduct.a(boot_adp.o)
                                0x180 (size before relaxing)
 *fill*         0x80772986        0x2 00
 .rodata.str1.4
                0x80772988       0x36 /home/zyq/share/HI3716STD310/source/boot/product/libproduct.a(common_api.o)
                                 0x38 (size before relaxing)
 *fill*         0x807729be        0x2 00
 .rodata.str1.4
                0x807729c0       0x90 /home/zyq/share/HI3716STD310/source/boot/product/libproduct.a(optm_hifb.o)
 .rodata.str1.4
                0x80772a50      0x1ef /home/zyq/share/HI3716STD310/source/boot/product/libproduct.a(optm_m_disp.o)
                                0x1f0 (size before relaxing)
 *fill*         0x80772c3f        0x1 00
 .rodata.str1.4
                0x80772c40       0x78 /home/zyq/share/HI3716STD310/source/boot/product/libproduct.a(vo_wrap.o)
                                 0x84 (size before relaxing)
 .rodata.str1.4
                0x80772cb8       0x68 /home/zyq/share/HI3716STD310/source/boot/product/libproduct.a(optm_alg_api.o)
 .rodata.str1.4
                0x80772d20        0xf /home/zyq/share/HI3716STD310/source/boot/product/libproduct.a(adp_gfx.o)
                                 0x34 (size before relaxing)
 *fill*         0x80772d2f        0x1 00
 .rodata.str1.4
                0x80772d30       0x11 /home/zyq/share/HI3716STD310/source/boot/product/libproduct.a(adp_layer.o)
                                 0x38 (size before relaxing)
 *fill*         0x80772d41        0x3 00
 .rodata.str1.4
                0x80772d44        0xf /home/zyq/share/HI3716STD310/source/boot/product/libproduct.a(higo_io.o)
                                 0x34 (size before relaxing)
 *fill*         0x80772d53        0x1 00
 .rodata.str1.4
                0x80772d54       0x13 /home/zyq/share/HI3716STD310/source/boot/product/libproduct.a(higo_memory.o)
                                 0x44 (size before relaxing)
 *fill*         0x80772d67        0x1 00
 .rodata.str1.4
                0x80772d68      0x891 /home/zyq/share/HI3716STD310/source/boot/product/libproduct.a(tde_osictl.o)
                                0x894 (size before relaxing)
 *fill*         0x807735f9        0x3 00
 .rodata.str1.4
                0x807735fc       0xee /home/zyq/share/HI3716STD310/source/boot/product/libproduct.a(tde_osilist.o)
                                 0xf0 (size before relaxing)
 *fill*         0x807736ea        0x2 00
 .rodata.str1.4
                0x807736ec       0x3c /home/zyq/share/HI3716STD310/source/boot/product/libproduct.a(wmalloc.o)
                                 0x50 (size before relaxing)
 .rodata.str1.4
                0x80773728       0x18 /home/zyq/share/HI3716STD310/source/boot/product/libproduct.a(optm_hal.o)
 .rodata.str1.4
                0x80773740       0x5c /home/zyq/share/HI3716STD310/source/boot/product/libproduct.a(tde_hal.o)
 .rodata        0x8077379c        0x7 net/libnet.a(eth.o)
 .rodata        0x807737a3        0x7 net/libnet.a(net.o)
 .rodata.str1.1
                0x807737aa      0x13f arch/arm/lib/libarm.a(board.o)
                                0x141 (size before relaxing)
 .rodata.str1.1
                0x807738e9      0x264 arch/arm/lib/libarm.a(interrupts.o)
                                0x27b (size before relaxing)
 .rodata.str1.1
                0x80773b4d      0x156 arch/arm/lib/libarm.a(ddr_layout.o)
                                0x158 (size before relaxing)
 .rodata.str1.1
                0x00000000        0x1 arch/arm/lib/libarm.a(cpu_info.o)
 .rodata.str1.1
                0x80773ca3       0xe4 net/libnet.a(eth.o)
                                 0xfe (size before relaxing)
 .rodata.str1.1
                0x80773d87      0x20c net/libnet.a(net.o)
                                0x217 (size before relaxing)
 .rodata.str1.1
                0x80773f93       0x43 net/libnet.a(rarp.o)
 .rodata.str1.1
                0x80773fd6      0x2d7 net/libnet.a(tftp.o)
                                0x32b (size before relaxing)
 .rodata.str1.1
                0x807742ad       0x70 net/libnet.a(bootp.o)
                                 0xa9 (size before relaxing)
 .rodata.str1.1
                0x8077431d      0x2e3 drivers/mtd/nand/libnand.a(nand_base.o)
 .rodata.str1.1
                0x80774600      0x309 drivers/mtd/nand/libnand.a(nand_bbt.o)
 .rodata.str1.1
                0x80774909      0x330 drivers/mtd/nand/libnand.a(nand_ids.o)
                                0x346 (size before relaxing)
 .rodata.str1.1
                0x80774c39      0xd56 drivers/mtd/nand/libnand.a(hinfc610.o)
                                0xd5e (size before relaxing)
 .rodata.str1.1
                0x8077598f       0xdf drivers/mtd/nand/libnand.a(hinfc610_sync.o)
                                0x115 (size before relaxing)
 .rodata.str1.1
                0x80775a6e       0x18 drivers/mtd/nand/libnand.a(hinfc610_sync_onfi_23.o)
                                 0x4e (size before relaxing)
 .rodata.str1.1
                0x80775a86       0x17 drivers/mtd/nand/libnand.a(hinfc610_sync_toggle.o)
                                 0x4d (size before relaxing)
 .rodata.str1.1
                0x80775a9d        0x8 drivers/mtd/nand/libnand.a(hinfc610_rw_latch_hi3716mv310.o)
 .rodata.str1.1
                0x80775aa5       0xad drivers/mtd/nand/libnand.a(hinfc_gen.o)
                                 0xc4 (size before relaxing)
 .rodata.str1.1
                0x80775b52      0x2fe drivers/mtd/nand/libnand.a(nand_spl_ids.o)
 .rodata.str1.1
                0x80775e50       0x93 drivers/mtd/nand/libnand.a(hinfc610_read_retry_hynix_bg_cdie.o)
                                 0xc9 (size before relaxing)
 .rodata.str1.1
                0x80775ee3       0x24 drivers/mtd/nand/libnand.a(hinfc610_read_retry_hynix_bg_bdie.o)
                                 0x5a (size before relaxing)
 .rodata.str1.1
                0x80775f07       0x68 drivers/mtd/nand/libnand.a(hinfc610_read_retry_hynix_cg_adie.o)
                                 0xc8 (size before relaxing)
 .rodata.str1.1
                0x80775f6f       0x1d drivers/mtd/nand/libnand.a(hinfc610_read_retry_micron.o)
                                 0x53 (size before relaxing)
 .rodata.str1.1
                0x80775f8c       0x1e drivers/mtd/nand/libnand.a(hinfc610_read_retry_samsung.o)
                                 0x54 (size before relaxing)
 .rodata.str1.1
                0x80775faa       0x23 drivers/mtd/nand/libnand.a(hinfc610_read_retry_toshiba_24nm.o)
                                 0x59 (size before relaxing)
 .rodata.str1.1
                0x80775fcd       0x23 drivers/mtd/nand/libnand.a(hinfc610_read_retry_toshiba_19nm.o)
                                 0x59 (size before relaxing)
 .rodata.str1.1
                0x80775ff0       0x32 common/libcommon.a(bootstrap.o)
                                 0x34 (size before relaxing)
 .rodata.str1.1
                0x80776022       0xef common/libcommon.a(cmd_boot.o)
                                 0xf0 (size before relaxing)
 .rodata.str1.1
                0x80776111      0x5c3 common/libcommon.a(cmd_bootm.o)
                                0x604 (size before relaxing)
 .rodata.str1.1
                0x807766d4      0x5ac common/libcommon.a(cmd_ddr_training.o)
                                0x5b0 (size before relaxing)
 .rodata.str1.1
                0x80776c80      0x1af common/libcommon.a(cmd_getinfo.o)
                                0x1e5 (size before relaxing)
 .rodata.str1.1
                0x80776e2f       0x98 common/libcommon.a(cmd_help.o)
                                 0x9b (size before relaxing)
 .rodata.str1.1
                0x80776ec7      0x316 common/libcommon.a(cmd_load.o)
                                0x32f (size before relaxing)
 .rodata.str1.1
                0x807771dd      0x483 common/libcommon.a(cmd_mem.o)
                                0x491 (size before relaxing)
 .rodata.str1.1
                0x80777660      0x74b common/libcommon.a(cmd_mii.o)
                                0x773 (size before relaxing)
 .rodata.str1.1
                0x80777dab      0xac9 common/libcommon.a(cmd_nand.o)
                                0xb2d (size before relaxing)
 .rodata.str1.1
                0x80778874      0x1c3 common/libcommon.a(cmd_net.o)
                                0x1fc (size before relaxing)
 .rodata.str1.1
                0x80778a37      0x27c common/libcommon.a(cmd_nvedit.o)
                                0x2d1 (size before relaxing)
 .rodata.str1.1
                0x80778cb3       0x1b common/libcommon.a(cmd_version.o)
                                 0x24 (size before relaxing)
 .rodata.str1.1
                0x80778cce       0xa0 common/libcommon.a(command.o)
                                 0xbc (size before relaxing)
 .rodata.str1.1
                0x80778d6e        0x7 common/libcommon.a(dlmalloc.o)
 .rodata.str1.1
                0x80778d75       0x6d common/libcommon.a(env_common.o)
                                 0x71 (size before relaxing)
 .rodata.str1.1
                0x80778de2       0x2b common/libcommon.a(env_common_func.o)
 .rodata.str1.1
                0x80778e0d       0x2e common/libcommon.a(env_nand.o)
                                 0x39 (size before relaxing)
 .rodata.str1.1
                0x80778e3b       0x22 common/libcommon.a(exports.o)
 .rodata.str1.1
                0x80778e5d      0x268 common/libcommon.a(hi3716mv310_ddr_training_printf.o)
                                0x26c (size before relaxing)
 .rodata.str1.1
                0x807790c5      0x4a4 common/libcommon.a(image.o)
                                0x539 (size before relaxing)
 .rodata.str1.1
                0x80779569       0xe1 common/libcommon.a(main.o)
                                 0xf0 (size before relaxing)
 .rodata.str1.1
                0x8077964a      0x1b9 common/libcommon.a(miiphyutil.o)
                                0x1c9 (size before relaxing)
 .rodata.str1.1
                0x80779803      0x8c6 common/libcommon.a(nand_logif.o)
 .rodata.str1.1
                0x8077a0c9      0x3b7 common/libcommon.a(spiflash_logif.o)
                                0x455 (size before relaxing)
 .rodata.str1.1
                0x8077a480        0x7 common/libcommon.a(stdio.o)
                                 0x1b (size before relaxing)
 .rodata.str1.1
                0x8077a487       0xe3 common/libcommon.a(xyzModem.o)
                                 0xe5 (size before relaxing)
 .rodata.str1.1
                0x8077a56a       0xa0 board/hi3716mv310/libhi3716mv310.a(board.o)
                                 0xa7 (size before relaxing)
 .rodata.str1.1
                0x8077a60a      0x346 board/hi3716mv310/libhi3716mv310.a(eth_cfg_setup.o)
                                0x357 (size before relaxing)
 .rodata.str1.1
                0x8077a950       0x37 lib/libgeneric.a(display_options.o)
                                 0x60 (size before relaxing)
 .rodata.str1.1
                0x8077a987        0xe lib/libgeneric.a(vsprintf.o)
 .rodata.str1.1
                0x8077a995        0xc lib/libgeneric.a(vsnprintf.o)
                                 0x13 (size before relaxing)
 .rodata.str1.1
                0x8077a9a1      0x123 lib/libgeneric.a(reserve_mem.o)
                                0x125 (size before relaxing)
 .rodata.str1.1
                0x8077aac4        0x4 lib/libgeneric.a(parse_bootargs.o)
                                  0xd (size before relaxing)
 .rodata.str1.1
                0x8077aac8      0x109 lib/libgeneric.a(bootimg.o)
                                0x10f (size before relaxing)
 .rodata.str1.1
                0x8077abd1       0x3f arch/arm/cpu/hi3716mv310/libhi3716mv310.a(cpu.o)
                                 0x4c (size before relaxing)
 .rodata.str1.1
                0x8077ac10        0xa arch/arm/cpu/hi3716mv310/libhi3716mv310.a(timer.o)
 .rodata.str1.1
                0x8077ac1a       0x5c arch/arm/lib/libarm.a(bootm.o)
                                 0x85 (size before relaxing)
 .rodata.str1.1
                0x8077ac76       0xb8 arch/arm/lib/libarm.a(tags.o)
                                 0xd8 (size before relaxing)
 .rodata.str1.1
                0x8077ad2e       0x72 arch/arm/lib/libarm.a(cache-cp15.o)
                                 0x81 (size before relaxing)
 .rodata.str1.1
                0x8077ada0        0xf arch/arm/lib/libarm.a(reset.o)
 .rodata.str1.1
                0x8077adaf       0x44 arch/arm/lib/libarm.a(process.o)
 .rodata.str1.1
                0x8077adf3      0x32c drivers/mtd/nand/libnand.a(hinfc_yaffs.o)
 .rodata.str1.1
                0x8077b11f      0x74d drivers/mtd/nand/libnand.a(nand_util.o)
                                0x7ce (size before relaxing)
 .rodata.str1.1
                0x8077b86c      0x1bc drivers/net/hisfv300/libhisfv300.a(net-drv.o)
                                0x1ce (size before relaxing)
 .rodata.str1.1
                0x8077ba28       0x41 drivers/net/hisfv300/libhisfv300.a(mii-drv.o)
 .rodata.str1.1
                0x8077ba69       0x32 drivers/net/hisfv300/libhisfv300.a(mdio.o)
                                 0x42 (size before relaxing)
 .rodata.str1.1
                0x8077ba9b       0x1b /home/zyq/share/HI3716STD310/source/boot/fastboot/arch/arm/lib/eabi_compat.o

.ARM.extab      0x8077bab6        0x0
 .ARM.extab     0x8077bab6        0x0 /opt/hisi-linux/x86-arm/arm-hisiv200-linux/bin/../lib/gcc/arm-hisiv200-linux-gnueabi/4.4.1/libgcc.a(_divdi3.o)
 .ARM.extab     0x8077bab6        0x0 /opt/hisi-linux/x86-arm/arm-hisiv200-linux/bin/../lib/gcc/arm-hisiv200-linux-gnueabi/4.4.1/libgcc.a(_udivdi3.o)

.ARM.exidx      0x8077bab8        0x8
 .ARM.exidx     0x8077bab8        0x8 /opt/hisi-linux/x86-arm/arm-hisiv200-linux/bin/../lib/gcc/arm-hisiv200-linux-gnueabi/4.4.1/libgcc.a(_divdi3.o)
 .ARM.exidx     0x8077bac0        0x0 /opt/hisi-linux/x86-arm/arm-hisiv200-linux/bin/../lib/gcc/arm-hisiv200-linux-gnueabi/4.4.1/libgcc.a(_udivdi3.o)
                                  0x8 (size before relaxing)
                0x8077bac0                . = ALIGN (0x4)

.data           0x8077bac0     0x7fc8
 *(.data)
 .data          0x8077bac0        0x0 arch/arm/cpu/hi3716mv310/start.o
 .data          0x8077bac0        0x0 arch/arm/cpu/hi3716mv310/lowlevel_init.o
 .data          0x8077bac0        0x0 arch/arm/cpu/hi3716mv310/chip.o
 .data          0x8077bac0        0x0 arch/arm/cpu/hi3716mv310/ddrphy_train.o
 .data          0x8077bac0        0x0 arch/arm/cpu/hi3716mv310/ddrphy_training.o
 .data          0x8077bac0        0x0 arch/arm/cpu/hi3716mv310/ddr_dataeye_training.o
 .data          0x8077bac0        0x0 arch/arm/cpu/hi3716mv310/irq.o
 .data          0x8077bac0        0x0 arch/arm/cpu/hi3716mv310/uart.o
 .data          0x8077bac0        0x0 arch/arm/cpu/hi3716mv310/libhi3716mv310.a(ddrphy_training_print.o)
 .data          0x8077bac0        0x0 arch/arm/cpu/hi3716mv310/libhi3716mv310.a(hi3716mv310_ddr_training.o)
 .data          0x8077bac0       0x28 arch/arm/lib/libarm.a(board.o)
                0x8077bac0                init_sequence
                0x8077bae4                U_PHY_ADDR
                0x8077bae5                D_PHY_ADDR
 .data          0x8077bae8        0x0 arch/arm/lib/libarm.a(interrupts.o)
 .data          0x8077bae8        0x0 arch/arm/lib/libarm.a(ddr_layout.o)
 .data          0x8077bae8        0x0 arch/arm/lib/libarm.a(ddr_size.o)
 .data          0x8077bae8        0x4 arch/arm/lib/libarm.a(cpu_info.o)
 .data          0x8077baec        0x0 net/libnet.a(eth.o)
 .data          0x8077baec        0xc net/libnet.a(net.o)
                0x8077baec                NetOurVLAN
                0x8077baee                NetOurNativeVLAN
                0x8077baf0                NetBcastAddr
 .data          0x8077baf8        0x0 net/libnet.a(rarp.o)
 .data          0x8077baf8       0x1c net/libnet.a(tftp.o)
                0x8077bb04                upload_addr
                0x8077bb0c                TftpRRQTimeoutCountMax
                0x8077bb10                TftpRRQTimeoutMSecs
 .data          0x8077bb14        0x0 net/libnet.a(bootp.o)
 .data          0x8077bb14        0x4 drivers/mtd/nand/libnand.a(nand.o)
                0x8077bb14                nand_curr_device
 .data          0x8077bb18        0x0 drivers/mtd/nand/libnand.a(hinfc_init.o)
 .data          0x8077bb18      0x920 drivers/mtd/nand/libnand.a(nand_base.o)
 .data          0x8077c438      0x110 drivers/mtd/nand/libnand.a(nand_bbt.o)
 .data          0x8077c548        0x0 drivers/mtd/nand/libnand.a(nand_ecc.o)
 .data          0x8077c548      0x4d0 drivers/mtd/nand/libnand.a(nand_ids.o)
                0x8077c548                nand_flash_ids
                0x8077c9b0                nand_manuf_ids
 .data          0x8077ca18      0xb90 drivers/mtd/nand/libnand.a(hinfc610.o)
 .data          0x8077d5a8       0x88 drivers/mtd/nand/libnand.a(hinfc610_gen.o)
 .data          0x8077d630       0x20 drivers/mtd/nand/libnand.a(hinfc610_read_retry.o)
 .data          0x8077d650      0x348 drivers/mtd/nand/libnand.a(hinfc610_ecc_info.o)
 .data          0x8077d998       0x10 drivers/mtd/nand/libnand.a(hinfc610_sync.o)
 .data          0x8077d9a8       0x68 drivers/mtd/nand/libnand.a(hinfc620_gen.o)
 .data          0x8077da10       0x18 drivers/mtd/nand/libnand.a(hinfc610_sync_onfi_23.o)
                0x8077da10                hinfc610_sync_onfi_23
                0x8077da1c                hinfc610_sync_onfi_30
 .data          0x8077da28        0xc drivers/mtd/nand/libnand.a(hinfc610_sync_toggle.o)
                0x8077da28                hinfc610_sync_toggle_10
 .data          0x8077da34        0x0 drivers/mtd/nand/libnand.a(hinfc610_rw_latch.o)
 .data          0x8077da34       0x18 drivers/mtd/nand/libnand.a(hinfc610_rw_latch_hi3716mv310.o)
                0x8077da34                hinfc610_rw_latch_godbox
                0x8077da48                hinfc_rw_latch_table
 .data          0x8077da4c      0x100 drivers/mtd/nand/libnand.a(hinfc_gen.o)
 *fill*         0x8077db4c        0x4 00
 .data          0x8077db50      0xa80 drivers/mtd/nand/libnand.a(nand_spl_ids.o)
 .data          0x8077e5d0       0x18 drivers/mtd/nand/libnand.a(hinfc610_read_retry_hynix_bg_cdie.o)
                0x8077e5d0                hinfc610_hynix_bg_cdie_read_retry
 .data          0x8077e5e8       0x18 drivers/mtd/nand/libnand.a(hinfc610_read_retry_hynix_bg_bdie.o)
                0x8077e5e8                hinfc610_hynix_bg_bdie_read_retry
 .data          0x8077e600       0x18 drivers/mtd/nand/libnand.a(hinfc610_read_retry_hynix_cg_adie.o)
                0x8077e600                hinfc610_hynix_cg_adie_read_retry
 .data          0x8077e618       0x18 drivers/mtd/nand/libnand.a(hinfc610_read_retry_micron.o)
                0x8077e618                hinfc610_micron_read_retry
 .data          0x8077e630       0x18 drivers/mtd/nand/libnand.a(hinfc610_read_retry_samsung.o)
                0x8077e630                hinfc610_samsung_read_retry
 .data          0x8077e648       0x18 drivers/mtd/nand/libnand.a(hinfc610_read_retry_toshiba_24nm.o)
                0x8077e648                hinfc610_toshiba_24nm_read_retry
 .data          0x8077e660       0x18 drivers/mtd/nand/libnand.a(hinfc610_read_retry_toshiba_19nm.o)
                0x8077e660                hinfc610_toshiba_19nm_read_retry
 .data          0x8077e678        0x0 drivers/serial/libserial.a(serial_pl01x.o)
 .data          0x8077e678        0x0 common/libcommon.a(bootstrap.o)
 .data          0x8077e678        0x0 common/libcommon.a(cmd_boot.o)
 .data          0x8077e678       0xac common/libcommon.a(cmd_bootm.o)
                0x8077e678                load_addr
 .data          0x8077e724        0x0 common/libcommon.a(cmd_ddr_training.o)
 .data          0x8077e724        0x0 common/libcommon.a(cmd_getinfo.o)
 .data          0x8077e724        0x0 common/libcommon.a(cmd_help.o)
 .data          0x8077e724        0x0 common/libcommon.a(cmd_load.o)
 .data          0x8077e724        0x4 common/libcommon.a(cmd_mem.o)
                0x8077e724                dp_last_length
 .data          0x8077e728      0x2e8 common/libcommon.a(cmd_mii.o)
                0x8077e728                reg_0_5_desc_tbl
                0x8077e758                desc_and_len_tbl
                0x8077e788                reg_0_desc_tbl
                0x8077e800                reg_1_desc_tbl
                0x8077e8c0                reg_2_desc_tbl
                0x8077e8cc                reg_3_desc_tbl
                0x8077e8f0                reg_4_desc_tbl
                0x8077e980                reg_5_desc_tbl
 .data          0x8077ea10        0x0 common/libcommon.a(cmd_nand.o)
 .data          0x8077ea10        0x0 common/libcommon.a(cmd_net.o)
 .data          0x8077ea10        0x4 common/libcommon.a(cmd_nvedit.o)
 .data          0x8077ea14        0x0 common/libcommon.a(cmd_version.o)
 .data          0x8077ea14        0x0 common/libcommon.a(command.o)
 .data          0x8077ea14        0x0 common/libcommon.a(console.o)
 .data          0x8077ea14      0x414 common/libcommon.a(dlmalloc.o)
 .data          0x8077ee28      0x114 common/libcommon.a(env_common.o)
                0x8077ee28                default_environment
 .data          0x8077ef3c        0x0 common/libcommon.a(env_common_func.o)
 .data          0x8077ef3c       0x18 common/libcommon.a(env_nand.o)
                0x8077ef3c                nand_env_cmn_func
 .data          0x8077ef54        0x0 common/libcommon.a(exports.o)
 .data          0x8077ef54        0x0 common/libcommon.a(hi3716mv310_ddr_training_printf.o)
 .data          0x8077ef54      0x204 common/libcommon.a(image.o)
 .data          0x8077f158       0x14 common/libcommon.a(main.o)
 .data          0x8077f16c        0x0 common/libcommon.a(miiphyutil.o)
 .data          0x8077f16c        0x0 common/libcommon.a(nand_logif.o)
 .data          0x8077f16c        0x0 common/libcommon.a(spiflash_logif.o)
 .data          0x8077f16c        0xc common/libcommon.a(stdio.o)
                0x8077f16c                stdio_names
 .data          0x8077f178        0x0 common/libcommon.a(xyzModem.o)
 .data          0x8077f178        0x0 common/libcommon.a(ddr_training_entry.o)
 .data          0x8077f178        0x4 /home/zyq/share/HI3716STD310/source/boot/product/libproduct.a(main.o)
 .data          0x8077f17c        0x0 /home/zyq/share/HI3716STD310/source/boot/product/libproduct.a(schedule.o)
 .data          0x8077f17c       0x28 /home/zyq/share/HI3716STD310/source/boot/product/libproduct.a(boot_debug.o)
 .data          0x8077f1a4        0x0 /home/zyq/share/HI3716STD310/source/boot/product/libproduct.a(boot_mem.o)
 .data          0x8077f1a4        0x0 /home/zyq/share/HI3716STD310/source/boot/product/libproduct.a(common_str.o)
 .data          0x8077f1a4        0x0 /home/zyq/share/HI3716STD310/source/boot/product/libproduct.a(drv_osal.o)
 .data          0x8077f1a4        0x0 /home/zyq/share/HI3716STD310/source/boot/product/libproduct.a(hi_adp_flash.o)
 .data          0x8077f1a4        0x0 /home/zyq/share/HI3716STD310/source/boot/product/libproduct.a(hi_go_bliter.o)
 .data          0x8077f1a4        0x0 /home/zyq/share/HI3716STD310/source/boot/product/libproduct.a(hi_go_comm.o)
 .data          0x8077f1a4        0x0 /home/zyq/share/HI3716STD310/source/boot/product/libproduct.a(hi_go_decoder.o)
 .data          0x8077f1a4        0x0 /home/zyq/share/HI3716STD310/source/boot/product/libproduct.a(hi_go_gdev.o)
 .data          0x8077f1a4        0x0 /home/zyq/share/HI3716STD310/source/boot/product/libproduct.a(higo_memsurface.o)
 .data          0x8077f1a4        0x4 /home/zyq/share/HI3716STD310/source/boot/product/libproduct.a(hi_go_surface.o)
                0x8077f1a4                g_bEnAutoSync
 .data          0x8077f1a8        0x0 /home/zyq/share/HI3716STD310/source/boot/product/libproduct.a(higo_surface.o)
 .data          0x8077f1a8        0x0 /home/zyq/share/HI3716STD310/source/boot/product/libproduct.a(adp_jpeg.o)
 .data          0x8077f1a8        0x0 /home/zyq/share/HI3716STD310/source/boot/product/libproduct.a(jpg_decctrl.o)
 .data          0x8077f1a8        0x0 /home/zyq/share/HI3716STD310/source/boot/product/libproduct.a(jpg_handle.o)
 .data          0x8077f1a8        0x0 /home/zyq/share/HI3716STD310/source/boot/product/libproduct.a(jpg_hdec.o)
 .data          0x8077f1a8        0x0 /home/zyq/share/HI3716STD310/source/boot/product/libproduct.a(jpg_parse.o)
 .data          0x8077f1a8        0x0 /home/zyq/share/HI3716STD310/source/boot/product/libproduct.a(drv_i2c.o)
 .data          0x8077f1a8        0x0 /home/zyq/share/HI3716STD310/source/boot/product/libproduct.a(drv_gpio.o)
 .data          0x8077f1a8        0x4 /home/zyq/share/HI3716STD310/source/boot/product/libproduct.a(boot_pdm.o)
 .data          0x8077f1ac        0x4 /home/zyq/share/HI3716STD310/source/boot/product/libproduct.a(hdmi.o)
                0x8077f1ac                g_pHDMIRegCrg
 .data          0x8077f1b0        0x0 /home/zyq/share/HI3716STD310/source/boot/product/libproduct.a(txvidp.o)
 .data          0x8077f1b0        0x0 /home/zyq/share/HI3716STD310/source/boot/product/libproduct.a(infofrm.o)
 .data          0x8077f1b0        0x0 /home/zyq/share/HI3716STD310/source/boot/product/libproduct.a(hdmitx.o)
 .data          0x8077f1b0        0x0 /home/zyq/share/HI3716STD310/source/boot/product/libproduct.a(drv_hlviic.o)
 .data          0x8077f1b0        0x8 /home/zyq/share/HI3716STD310/source/boot/product/libproduct.a(txvptbl.o)
                0x8077f1b0                DefaultTXVPath
                0x8077f1b4                DefaultTXDVDAudio
 .data          0x8077f1b8        0x0 /home/zyq/share/HI3716STD310/source/boot/product/libproduct.a(phy.o)
 .data          0x8077f1b8        0x0 /home/zyq/share/HI3716STD310/source/boot/product/libproduct.a(de.o)
 .data          0x8077f1b8        0x8 /home/zyq/share/HI3716STD310/source/boot/product/libproduct.a(hi_keyled_inner.o)
 .data          0x8077f1c0        0x0 /home/zyq/share/HI3716STD310/source/boot/product/libproduct.a(cmd_otp.o)
 .data          0x8077f1c0        0x0 /home/zyq/share/HI3716STD310/source/boot/product/libproduct.a(otp.o)
 .data          0x8077f1c0        0x0 /home/zyq/share/HI3716STD310/source/boot/product/libproduct.a(unf_otp.o)
 .data          0x8077f1c0        0x0 /home/zyq/share/HI3716STD310/source/boot/product/libproduct.a(boot_logo.o)
 .data          0x8077f1c0        0x0 /home/zyq/share/HI3716STD310/source/boot/product/libproduct.a(boot_adp.o)
 .data          0x8077f1c0        0x0 /home/zyq/share/HI3716STD310/source/boot/product/libproduct.a(common_api.o)
 .data          0x8077f1c0       0x10 /home/zyq/share/HI3716STD310/source/boot/product/libproduct.a(drv_reg_common.o)
                0x8077f1c0                g_pstRegSysCtrl
                0x8077f1c4                g_pstRegPeri
                0x8077f1c8                g_pstRegIO
                0x8077f1cc                g_pstRegCrg
 .data          0x8077f1d0        0x0 /home/zyq/share/HI3716STD310/source/boot/product/libproduct.a(drv_grc_adpt.o)
 .data          0x8077f1d0       0x90 /home/zyq/share/HI3716STD310/source/boot/product/libproduct.a(optm_hifb.o)
                0x8077f1d0                enHalFmt
 .data          0x8077f260      0x840 /home/zyq/share/HI3716STD310/source/boot/product/libproduct.a(optm_m_disp.o)
                0x8077fa40                u32SDDATESrcHTimingCoef
                0x8077fa90                HDateIndex
 .data          0x8077faa0        0x0 /home/zyq/share/HI3716STD310/source/boot/product/libproduct.a(vo_wrap.o)
 .data          0x8077faa0      0x660 /home/zyq/share/HI3716STD310/source/boot/product/libproduct.a(optm_alg_api.o)
                0x8077fc80                CSCTable_NtscSDYCbCr_to_HDYCbCr_8bit
                0x8077fca4                CSCTable_PalSDYCbCr_to_HDYCbCr_8bit
                0x8077fcc8                CSCTable_240MHDYCbCr_to_HDYCbCr_8bit
                0x8077fcec                CSCTable_FccSDYCbCr_to_HDYCbCr_8bit
                0x8077fd10                CSCTable_XvYCCSDYCbCr_to_HDYCbCr_8bit
                0x8077fd34                CSCTable_HDYCbCr_to_XvYCCSDYCbCr_8bit
                0x8077fd58                CSCTable_FccSDYCbCr_to_XvYCCSDYCbCr_8bit
                0x8077fd7c                CSCTable_PalSDYCbCr_to_XvYCCSDYCbCr_8bit
                0x8077fda0                CSCTable_NtscSDYCbCr_to_XvYCCSDYCbCr_8bit
                0x8077fdc4                CSCTable_240MHDYCbCr_to_XvYCCSDYCbCr_8bit
                0x8077fde8                CSCTable_Identity_YCbCr_to_YCbCr_8bit
                0x8077fe0c                CSCTable_RGB_to_HDYCbCr_8bit
                0x8077fe30                CSCTable_RGB_to_XvYCCSDYCbCr_8bit
                0x8077fe54                CSCTable_HDYCbCr_to_RGB_8bit
                0x8077fe78                CSCTable_XvYCCSDYCbCr_to_RGB_8bit
                0x8077fe9c                CSCTable_Identity_RGB_to_RGB_8bit
                0x8077fec0                CSCTable_NtscSDYCbCr_to_HDYCbCr
                0x8077fee4                CSCTable_PalSDYCbCr_to_HDYCbCr
                0x8077ff08                CSCTable_240MHDYCbCr_to_HDYCbCr
                0x8077ff2c                CSCTable_FccSDYCbCr_to_HDYCbCr
                0x8077ff50                CSCTable_XvYCCSDYCbCr_to_HDYCbCr
                0x8077ff74                CSCTable_HDYCbCr_to_XvYCCSDYCbCr
                0x8077ff98                CSCTable_FccSDYCbCr_to_XvYCCSDYCbCr
                0x8077ffbc                CSCTable_PalSDYCbCr_to_XvYCCSDYCbCr
                0x8077ffe0                CSCTable_NtscSDYCbCr_to_XvYCCSDYCbCr
                0x80780004                CSCTable_240MHDYCbCr_to_XvYCCSDYCbCr
                0x80780028                CSCTable_Identity_YCbCr_to_YCbCr
                0x8078004c                CSCTable_RGB_to_HDYCbCr
                0x80780070                CSCTable_RGB_to_XvYCCSDYCbCr
                0x80780094                CSCTable_HDYCbCr_to_RGB
                0x807800b8                CSCTable_XvYCCSDYCbCr_to_RGB
                0x807800dc                CSCTable_Identity_RGB_to_RGB
 .data          0x80780100     0x33e0 /home/zyq/share/HI3716STD310/source/boot/product/libproduct.a(optm_alg.o)
                0x80780100                coefficient4_1M
                0x80780220                coefficient4_cubic
                0x80780340                coefficient4_2M
                0x80780460                coefficient4_3M
                0x80780580                coefficient4_4M
                0x807806a0                coefficient4_5M
                0x807807c0                coefficient4_5_3M
                0x807808e0                coefficient2_cubic
                0x80780a00                coefficient2_5M
                0x80780b20                coefficient2_4M
                0x80780c40                coefficient2_3M
                0x80780d60                coefficient2_2M
                0x80780e80                coefficient2_1M
                0x80780fa0                coefficient8_5_3M
                0x807811e0                coefficient8_cubic
                0x80781420                coefficient8_3M
                0x80781660                coefficient8_2M
                0x807818a0                coefficient8_1M
                0x80781ae0                coefficient8_lanczos2_8tap
                0x80781d20                coefficient_lanczos2
                0x80781e40                coefficient_lanczos3
                0x80782080                gfxcoefficient4_cubic
                0x80782100                gfxcoefficient4_1M
                0x80782180                gfxcoefficient4_2M
                0x80782200                gfxcoefficient4_3M
                0x80782280                gfxcoefficient4_4M
                0x80782300                gfxcoefficient4_5M
                0x80782380                gfxcoefficient4_5_3M
                0x80782400                gfxcoefficient2_cubic
                0x80782480                gfxcoefficient2_5M
                0x80782500                gfxcoefficient2_4M
                0x80782580                gfxcoefficient2_3M
                0x80782600                gfxcoefficient2_2M
                0x80782680                gfxcoefficient2_1M
                0x80782700                gfxcoefficient8_5_3M
                0x80782780                gfxcoefficient8_cubic
                0x80782800                gfxcoefficient8_3M
                0x80782880                gfxcoefficient8_2M
                0x80782900                gfxcoefficient8_1M
                0x80782980                gfxcoefficient4_6M_a15
                0x80782a00                gfxcoefficient4_5M_a15
                0x80782a80                gfxcoefficient4_4_5M_a15
                0x80782b00                gfxcoefficient4_3M_a13
                0x80782b80                gfxcoefficient8_lanczos2_8tap
                0x80782c00                gfxcoefficient8_lanczos3_8tap
                0x80782c80                gfxcoefficient8_6M_a30
                0x80782d00                gfxcoefficient8_5M_a25
                0x80782d80                gfxcoefficient8_4M_a25
                0x80782e00                gfxcoefficient8_3M_a19
                0x80782e80                gfxcoefficient4_lanczos2_6M_a15
                0x80782f00                gfxcoefficient4_lanczos2_5M_a15
                0x80782f80                gfxcoefficient4_lanczos2_4_5M_a15
                0x80783000                gfxcoefficient4_lanczos2_4M_a15
                0x80783080                gfxcoefficient4_lanczos2_3M_a13
                0x80783100                gfxcoefficient4_lanczos_4tap
                0x80783180                gfxcoefficient2h_guass2_6M_2_5
                0x807831a0                gfxcoefficient2v_guass2_6M_2_5
                0x807831e0                gfxcoefficient2h_guass2_6_75M_a0_5
                0x80783200                gfxcoefficient2v_guass2_6_75M_a0_5
                0x80783240                gfxcoefficient2h_guass2_6M_a0_5
                0x80783260                gfxcoefficient2v_guass2_6M_a0_5
                0x807832a0                gfxcoefficient2h_guass2_6M_a2_0
                0x807832c0                gfxcoefficient2v_guass2_6M_a2_0
                0x80783300                gfxcoefficient2h_4M_0_1
                0x80783320                gfxcoefficient2v_4M_0_1
                0x80783360                coefficient8t8p_cubic
                0x807833e0                coefficient8t8p_3M
                0x80783460                coefficient8t8p_lanczos2
 .data          0x807834e0       0x68 /home/zyq/share/HI3716STD310/source/boot/product/libproduct.a(adp_gfx.o)
                0x807834e0                g_HiGo_PF_MapTable
                0x80783520                g_HiGo_MBPF_MapTable
 .data          0x80783548       0x78 /home/zyq/share/HI3716STD310/source/boot/product/libproduct.a(adp_layer.o)
 .data          0x807835c0        0x0 /home/zyq/share/HI3716STD310/source/boot/product/libproduct.a(hi_api_mmz.o)
 .data          0x807835c0        0x0 /home/zyq/share/HI3716STD310/source/boot/product/libproduct.a(higo_blit.o)
 .data          0x807835c0        0x0 /home/zyq/share/HI3716STD310/source/boot/product/libproduct.a(higo_io.o)
 .data          0x807835c0        0x0 /home/zyq/share/HI3716STD310/source/boot/product/libproduct.a(higo_memory.o)
 .data          0x807835c0        0x0 /home/zyq/share/HI3716STD310/source/boot/product/libproduct.a(hi_api_tde.o)
 .data          0x807835c0        0x0 /home/zyq/share/HI3716STD310/source/boot/product/libproduct.a(tde_osictl.o)
 .data          0x807835c0        0x4 /home/zyq/share/HI3716STD310/source/boot/product/libproduct.a(tde_osilist.o)
 .data          0x807835c4        0x0 /home/zyq/share/HI3716STD310/source/boot/product/libproduct.a(tde_osr.o)
 .data          0x807835c4        0x0 /home/zyq/share/HI3716STD310/source/boot/product/libproduct.a(wmalloc.o)
 .data          0x807835c4        0x0 /home/zyq/share/HI3716STD310/source/boot/product/libproduct.a(jpg_buf.o)
 .data          0x807835c4        0x0 /home/zyq/share/HI3716STD310/source/boot/product/libproduct.a(jpg_drvapi.o)
 .data          0x807835c4        0x0 /home/zyq/share/HI3716STD310/source/boot/product/libproduct.a(vmtables.o)
 .data          0x807835c4      0x260 /home/zyq/share/HI3716STD310/source/boot/product/libproduct.a(optm_disp_rwzb.o)
                0x807836e4                u32SDDATESrcCoef
                0x80783734                u32SDDATESrcRwzbReviseCoef
 .data          0x80783824       0x24 /home/zyq/share/HI3716STD310/source/boot/product/libproduct.a(optm_hal.o)
                0x80783844                g_u32VouVersion
 .data          0x80783848       0x3c /home/zyq/share/HI3716STD310/source/boot/product/libproduct.a(tde_hal.o)
 .data          0x80783884        0x0 board/hi3716mv310/libhi3716mv310.a(board.o)
 .data          0x80783884        0x0 board/hi3716mv310/libhi3716mv310.a(eth_cfg_setup.o)
 .data          0x80783884        0x0 lib/libgeneric.a(crc16.o)
 .data          0x80783884        0x0 lib/libgeneric.a(crc32.o)
 .data          0x80783884      0x100 lib/libgeneric.a(ctype.o)
                0x80783884                _ctype
 .data          0x80783984        0x0 lib/libgeneric.a(display_options.o)
 .data          0x80783984        0x0 lib/libgeneric.a(div64.o)
 .data          0x80783984        0x0 lib/libgeneric.a(net_utils.o)
 .data          0x80783984        0x0 lib/libgeneric.a(string.o)
 .data          0x80783984        0x0 lib/libgeneric.a(time.o)
 .data          0x80783984        0x0 lib/libgeneric.a(vsprintf.o)
 .data          0x80783984        0x0 lib/libgeneric.a(vsnprintf.o)
 .data          0x80783984        0x8 lib/libgeneric.a(reserve_mem.o)
                0x80783984                reserve_mem
 .data          0x8078398c        0x0 lib/libgeneric.a(parse_bootargs.o)
 .data          0x8078398c        0x0 lib/libgeneric.a(match_table.o)
 .data          0x8078398c        0x0 lib/libgeneric.a(bootimg.o)
 *fill*         0x8078398c        0x4 00
 .data          0x80783990       0xf0 arch/arm/cpu/hi3716mv310/libhi3716mv310.a(cpu.o)
                0x80783990                cpu_info
 .data          0x80783a80        0x0 arch/arm/cpu/hi3716mv310/libhi3716mv310.a(timer.o)
 .data          0x80783a80        0x0 arch/arm/lib/libarm.a(mmu.o)
 .data          0x80783a80        0x0 arch/arm/lib/libarm.a(bootm.o)
 .data          0x80783a80        0x0 arch/arm/lib/libarm.a(tags.o)
 .data          0x80783a80        0x0 arch/arm/lib/libarm.a(cache.o)
 .data          0x80783a80        0x4 arch/arm/lib/libarm.a(cache-cp15.o)
 .data          0x80783a84        0x0 arch/arm/lib/libarm.a(reset.o)
 .data          0x80783a84        0x0 arch/arm/lib/libarm.a(process.o)
 .data          0x80783a84        0x0 drivers/mtd/nand/libnand.a(hinfc_yaffs.o)
 .data          0x80783a84        0x0 drivers/mtd/nand/libnand.a(nand_util.o)
 .data          0x80783a84        0x0 drivers/mtd/spi/libspi_flash.a(spi_compatible.o)
 .data          0x80783a84        0x4 drivers/net/hisfv300/libhisfv300.a(net-drv.o)
 .data          0x80783a88        0x0 drivers/net/hisfv300/libhisfv300.a(mii-drv.o)
 .data          0x80783a88        0x0 drivers/net/hisfv300/libhisfv300.a(ctrl.o)
 .data          0x80783a88        0x0 drivers/net/hisfv300/libhisfv300.a(glb.o)
 .data          0x80783a88        0x0 drivers/net/hisfv300/libhisfv300.a(mac.o)
 .data          0x80783a88        0x0 drivers/net/hisfv300/libhisfv300.a(mdio.o)
 .data          0x80783a88        0x0 drivers/net/hisfv300/libhisfv300.a(sys.o)
 .data          0x80783a88        0x0 drivers/net/hisfv300/libhisfv300.a(phy_fix.o)
 .data          0x80783a88        0x0 common/libcommon.a(flash_part.o)
 .data          0x80783a88        0x0 /home/zyq/share/HI3716STD310/source/boot/fastboot/arch/arm/lib/eabi_compat.o
 .data          0x80783a88        0x0 /opt/hisi-linux/x86-arm/arm-hisiv200-linux/bin/../lib/gcc/arm-hisiv200-linux-gnueabi/4.4.1/libgcc.a(_udivsi3.o)
 .data          0x80783a88        0x0 /opt/hisi-linux/x86-arm/arm-hisiv200-linux/bin/../lib/gcc/arm-hisiv200-linux-gnueabi/4.4.1/libgcc.a(_divsi3.o)
 .data          0x80783a88        0x0 /opt/hisi-linux/x86-arm/arm-hisiv200-linux/bin/../lib/gcc/arm-hisiv200-linux-gnueabi/4.4.1/libgcc.a(_lshrdi3.o)
 .data          0x80783a88        0x0 /opt/hisi-linux/x86-arm/arm-hisiv200-linux/bin/../lib/gcc/arm-hisiv200-linux-gnueabi/4.4.1/libgcc.a(_ashrdi3.o)
 .data          0x80783a88        0x0 /opt/hisi-linux/x86-arm/arm-hisiv200-linux/bin/../lib/gcc/arm-hisiv200-linux-gnueabi/4.4.1/libgcc.a(_ashldi3.o)
 .data          0x80783a88        0x0 /opt/hisi-linux/x86-arm/arm-hisiv200-linux/bin/../lib/gcc/arm-hisiv200-linux-gnueabi/4.4.1/libgcc.a(_aeabi_uldivmod.o)
 .data          0x80783a88        0x0 /opt/hisi-linux/x86-arm/arm-hisiv200-linux/bin/../lib/gcc/arm-hisiv200-linux-gnueabi/4.4.1/libgcc.a(_dvmd_lnx.o)
 .data          0x80783a88        0x0 /opt/hisi-linux/x86-arm/arm-hisiv200-linux/bin/../lib/gcc/arm-hisiv200-linux-gnueabi/4.4.1/libgcc.a(bpabi.o)
 .data          0x80783a88        0x0 /opt/hisi-linux/x86-arm/arm-hisiv200-linux/bin/../lib/gcc/arm-hisiv200-linux-gnueabi/4.4.1/libgcc.a(_divdi3.o)
 .data          0x80783a88        0x0 /opt/hisi-linux/x86-arm/arm-hisiv200-linux/bin/../lib/gcc/arm-hisiv200-linux-gnueabi/4.4.1/libgcc.a(_udivdi3.o)

.got.plt        0x80783a88        0xc
 .got.plt       0x80783a88        0xc /home/zyq/share/HI3716STD310/source/boot/product/libproduct.a(main.o)
                0x80783a88                _GLOBAL_OFFSET_TABLE_

.data.rel.local
                0x80783a94        0x4
 .data.rel.local
                0x80783a94        0x4 /home/zyq/share/HI3716STD310/source/boot/product/libproduct.a(hi_go_comm.o)
                0x80783a94                g_pszBuildTime

.data.rel.ro    0x80783a98       0xac
 .data.rel.ro   0x80783a98       0x1c /home/zyq/share/HI3716STD310/source/boot/product/libproduct.a(txvptbl.o)
                0x80783a98                inMode
 .data.rel.ro   0x80783ab4       0x90 /home/zyq/share/HI3716STD310/source/boot/product/libproduct.a(optm_alg_api.o)

.data.rel       0x80783b44      0x32c
 .data.rel      0x80783b44      0x32c /home/zyq/share/HI3716STD310/source/boot/product/libproduct.a(optm_alg.o)
                0x80783b44                g_pOrgZoomCoef
                0x80783c40                g_pGfxOrgZoomCoef_sharp
                0x80783d20                g_pGfxOrgZoomCoef
                0x80783e00                g_pSDGfxOrgZoomCoef
                0x80783e70                . = ALIGN (0x4)

.got            0x80783e70      0x138
 *(.got)
 .got           0x80783e70      0x138 /home/zyq/share/HI3716STD310/source/boot/product/libproduct.a(main.o)
                0x80783fa8                __u_boot_cmd_start = .

.u_boot_cmd     0x80783fa8      0x40c
 *(.u_boot_cmd)
 .u_boot_cmd    0x80783fa8       0x38 common/libcommon.a(cmd_boot.o)
                0x80783fa8                __u_boot_cmd_go
                0x80783fc4                __u_boot_cmd_reset
 .u_boot_cmd    0x80783fe0       0x1c common/libcommon.a(cmd_bootm.o)
                0x80783fe0                __u_boot_cmd_bootm
 .u_boot_cmd    0x80783ffc       0x1c common/libcommon.a(cmd_ddr_training.o)
                0x80783ffc                __u_boot_cmd_ddr
 .u_boot_cmd    0x80784018       0x1c common/libcommon.a(cmd_getinfo.o)
                0x80784018                __u_boot_cmd_getinfo
 .u_boot_cmd    0x80784034       0x38 common/libcommon.a(cmd_help.o)
                0x80784034                __u_boot_cmd_help
                0x80784050                __u_boot_cmd_question_mark
 .u_boot_cmd    0x8078406c       0x54 common/libcommon.a(cmd_load.o)
                0x8078406c                __u_boot_cmd_loadb
                0x80784088                __u_boot_cmd_loady
                0x807840a4                __u_boot_cmd_uploadx
 .u_boot_cmd    0x807840c0      0x118 common/libcommon.a(cmd_mem.o)
                0x807840c0                __u_boot_cmd_md
                0x807840dc                __u_boot_cmd_mm
                0x807840f8                __u_boot_cmd_nm
                0x80784114                __u_boot_cmd_mw
                0x80784130                __u_boot_cmd_cp
                0x8078414c                __u_boot_cmd_cmp
                0x80784168                __u_boot_cmd_crc32
                0x80784184                __u_boot_cmd_base
                0x807841a0                __u_boot_cmd_loop
                0x807841bc                __u_boot_cmd_mtest
 .u_boot_cmd    0x807841d8       0x1c common/libcommon.a(cmd_mii.o)
                0x807841d8                __u_boot_cmd_mii
 .u_boot_cmd    0x807841f4       0x38 common/libcommon.a(cmd_nand.o)
                0x807841f4                __u_boot_cmd_nand
                0x80784210                __u_boot_cmd_nboot
 .u_boot_cmd    0x8078422c       0x70 common/libcommon.a(cmd_net.o)
                0x8078422c                __u_boot_cmd_bootp
                0x80784248                __u_boot_cmd_tftp
                0x80784264                __u_boot_cmd_rarpboot
                0x80784280                __u_boot_cmd_ping
 .u_boot_cmd    0x8078429c       0x54 common/libcommon.a(cmd_nvedit.o)
                0x8078429c                __u_boot_cmd_saveenv
                0x807842b8                __u_boot_cmd_printenv
                0x807842d4                __u_boot_cmd_setenv
 .u_boot_cmd    0x807842f0       0x1c common/libcommon.a(cmd_version.o)
                0x807842f0                __u_boot_cmd_version
 .u_boot_cmd    0x8078430c       0xa8 /home/zyq/share/HI3716STD310/source/boot/product/libproduct.a(cmd_otp.o)
                0x8078430c                __u_boot_cmd_otp_getcustomerkey
                0x80784328                __u_boot_cmd_otp_setstbprivdata
                0x80784344                __u_boot_cmd_otp_getstbprivdata
                0x80784360                __u_boot_cmd_otpreadall
                0x8078437c                __u_boot_cmd_otpwrite
                0x80784398                __u_boot_cmd_otp_burntosecurechipset
                0x807843b4                __u_boot_cmd_end = .
                0x807843b4                . = ALIGN (0x4)

.image          0x807843b4     0x128c
 *(.image)
 .image         0x807843b4     0x128c common/libcommon.a(ddr_training_entry.o)
                0x807843b4                hi3716mv310_ddr_training_data_start
                0x80785640                hi3716mv310_ddr_training_data_end

.rel.dyn        0x80785640        0x0
 .rel.got       0x00000000        0x0 /home/zyq/share/HI3716STD310/source/boot/product/libproduct.a(main.o)
                0x80785640                . = ALIGN (0x4)
                0x80785640                __bss_start = .

.bss            0x80785640    0x19e20
 *(.bss)
 .bss           0x80785640        0x0 arch/arm/cpu/hi3716mv310/start.o
 .bss           0x80785640        0x0 arch/arm/cpu/hi3716mv310/lowlevel_init.o
 .bss           0x80785640        0x0 arch/arm/cpu/hi3716mv310/chip.o
 .bss           0x80785640        0x0 arch/arm/cpu/hi3716mv310/ddrphy_train.o
 .bss           0x80785640        0x0 arch/arm/cpu/hi3716mv310/ddrphy_training.o
 .bss           0x80785640        0x0 arch/arm/cpu/hi3716mv310/ddr_dataeye_training.o
 .bss           0x80785640        0x0 arch/arm/cpu/hi3716mv310/irq.o
 .bss           0x80785640        0x0 arch/arm/cpu/hi3716mv310/uart.o
 .bss           0x80785640        0x0 arch/arm/cpu/hi3716mv310/libhi3716mv310.a(ddrphy_training_print.o)
 .bss           0x80785640        0x0 arch/arm/cpu/hi3716mv310/libhi3716mv310.a(hi3716mv310_ddr_training.o)
 .bss           0x80785640        0x4 arch/arm/lib/libarm.a(board.o)
                0x80785640                monitor_flash_len
 .bss           0x80785644        0x0 arch/arm/lib/libarm.a(interrupts.o)
 .bss           0x80785644       0xf4 arch/arm/lib/libarm.a(ddr_layout.o)
 .bss           0x80785738        0x4 arch/arm/lib/libarm.a(ddr_size.o)
 *fill*         0x8078573c        0x4 00
 .bss           0x80785740       0x28 arch/arm/lib/libarm.a(cpu_info.o)
 .bss           0x80785768       0x14 net/libnet.a(eth.o)
 .bss           0x8078577c     0x25e8 net/libnet.a(net.o)
                0x8078577c                NetState
                0x80785784                NetIPID
                0x80785788                NetOurIP
                0x8078578c                NetOurEther
                0x80785794                NetPingIP
                0x80785798                NetRxPacket
                0x8078579c                NetRxPacketLen
                0x807857a0                NetArpWaitPacketIP
                0x807857a4                NetArpWaitPacketMAC
                0x807857a8                NetArpWaitReplyIP
                0x807857ac                NetArpWaitTxPacket
                0x807857b0                NetArpWaitTxPacketSize
                0x807857b4                NetServerIP
                0x807857b8                NetServerEther
                0x807857c0                NetTxPacket
                0x807857c4                NetOurSubnetMask
                0x807857c8                NetOurGatewayIP
                0x807857d4                NetEtherNullAddr
                0x807857dc                NetArpWaitTry
                0x807857e0                NetArpWaitTimerStart
                0x807857f0                NetArpFreqWaitTimerStart
                0x807857fc                NetRestartWrap
                0x80785804                PktBuf
                0x80787624                NetRxPackets
                0x80787634                NetArpWaitPacketBuf
                0x80787c58                NetBootFileXferSize
                0x80787c5c                NetOurDNSIP
                0x80787c60                NetOurNISDomain
                0x80787c80                NetOurHostName
                0x80787ca0                NetOurRootPath
                0x80787ce0                NetBootFileSize
                0x80787ce4                BootFile
 .bss           0x80787d64        0x4 net/libnet.a(rarp.o)
                0x80787d64                RarpTry
 .bss           0x80787d68       0xbc net/libnet.a(tftp.o)
                0x80787df4                upload_size
 .bss           0x80787e24        0x8 net/libnet.a(bootp.o)
                0x80787e24                BootpID
                0x80787e28                BootpTry
 *fill*         0x80787e2c        0x4 00
 .bss           0x80787e30      0x1d0 drivers/mtd/nand/libnand.a(nand.o)
                0x80787e30                nand_info
 .bss           0x80788000        0x0 drivers/mtd/nand/libnand.a(hinfc_init.o)
 .bss           0x80788000       0x88 drivers/mtd/nand/libnand.a(nand_base.o)
 .bss           0x80788088        0x0 drivers/mtd/nand/libnand.a(nand_bbt.o)
 .bss           0x80788088        0x0 drivers/mtd/nand/libnand.a(nand_ecc.o)
 .bss           0x80788088        0x0 drivers/mtd/nand/libnand.a(nand_ids.o)
 .bss           0x80788088     0x413c drivers/mtd/nand/libnand.a(hinfc610.o)
 .bss           0x8078c1c4        0x0 drivers/mtd/nand/libnand.a(hinfc610_gen.o)
 .bss           0x8078c1c4        0x0 drivers/mtd/nand/libnand.a(hinfc610_read_retry.o)
 .bss           0x8078c1c4        0x0 drivers/mtd/nand/libnand.a(hinfc610_ecc_info.o)
 .bss           0x8078c1c4        0x0 drivers/mtd/nand/libnand.a(hinfc610_sync.o)
 .bss           0x8078c1c4        0x0 drivers/mtd/nand/libnand.a(hinfc620_gen.o)
 .bss           0x8078c1c4        0x0 drivers/mtd/nand/libnand.a(hinfc610_sync_onfi_23.o)
 .bss           0x8078c1c4        0x0 drivers/mtd/nand/libnand.a(hinfc610_sync_toggle.o)
 .bss           0x8078c1c4        0x0 drivers/mtd/nand/libnand.a(hinfc610_rw_latch.o)
 .bss           0x8078c1c4        0x0 drivers/mtd/nand/libnand.a(hinfc610_rw_latch_hi3716mv310.o)
 .bss           0x8078c1c4        0x8 drivers/mtd/nand/libnand.a(hinfc_gen.o)
                0x8078c1c4                nand_get_spl_flash_type
                0x8078c1c8                nand_param_adjust
 *fill*         0x8078c1cc        0x4 00
 .bss           0x8078c1d0       0x38 drivers/mtd/nand/libnand.a(nand_spl_ids.o)
                0x8078c1d0                nandtag
 .bss           0x8078c208        0x4 drivers/mtd/nand/libnand.a(hinfc610_read_retry_hynix_bg_cdie.o)
 .bss           0x8078c20c        0x8 drivers/mtd/nand/libnand.a(hinfc610_read_retry_hynix_bg_bdie.o)
 .bss           0x8078c214        0x4 drivers/mtd/nand/libnand.a(hinfc610_read_retry_hynix_cg_adie.o)
 .bss           0x8078c218        0x0 drivers/mtd/nand/libnand.a(hinfc610_read_retry_micron.o)
 .bss           0x8078c218        0x0 drivers/mtd/nand/libnand.a(hinfc610_read_retry_samsung.o)
 .bss           0x8078c218        0x0 drivers/mtd/nand/libnand.a(hinfc610_read_retry_toshiba_24nm.o)
 .bss           0x8078c218        0x4 drivers/mtd/nand/libnand.a(hinfc610_read_retry_toshiba_19nm.o)
 .bss           0x8078c21c        0x0 drivers/serial/libserial.a(serial_pl01x.o)
 .bss           0x8078c21c      0x400 common/libcommon.a(bootstrap.o)
 .bss           0x8078c61c        0x0 common/libcommon.a(cmd_boot.o)
 .bss           0x8078c61c       0x8c common/libcommon.a(cmd_bootm.o)
 .bss           0x8078c6a8      0xe50 common/libcommon.a(cmd_ddr_training.o)
 .bss           0x8078d4f8        0x0 common/libcommon.a(cmd_getinfo.o)
 .bss           0x8078d4f8        0x0 common/libcommon.a(cmd_help.o)
 .bss           0x8078d4f8       0x60 common/libcommon.a(cmd_load.o)
                0x8078d508                os_data_init
                0x8078d518                os_data_char
                0x8078d51c                his_quote
                0x8078d520                his_pad_count
                0x8078d524                his_pad_char
                0x8078d525                his_eol
                0x8078d528                send_ptr
                0x8078d52c                send_parms
 .bss           0x8078d558       0x14 common/libcommon.a(cmd_mem.o)
                0x8078d55c                mm_last_addr
                0x8078d560                mm_last_size
                0x8078d564                dp_last_addr
                0x8078d568                dp_last_size
 .bss           0x8078d56c       0x18 common/libcommon.a(cmd_mii.o)
                0x8078d56c                last_op
                0x8078d570                last_addr_lo
                0x8078d574                last_addr_hi
                0x8078d578                last_reg_lo
                0x8078d57c                last_reg_hi
                0x8078d580                last_data
 .bss           0x8078d584        0x0 common/libcommon.a(cmd_nand.o)
 .bss           0x8078d584        0x0 common/libcommon.a(cmd_net.o)
 .bss           0x8078d584        0x0 common/libcommon.a(cmd_nvedit.o)
 .bss           0x8078d584        0x0 common/libcommon.a(cmd_version.o)
 .bss           0x8078d584      0x600 common/libcommon.a(command.o)
 .bss           0x8078db84        0x8 common/libcommon.a(console.o)
 .bss           0x8078db8c       0x44 common/libcommon.a(dlmalloc.o)
                0x8078db8c                mem_malloc_brk
                0x8078db90                mem_malloc_start
                0x8078db94                mem_malloc_end
 .bss           0x8078dbd0        0x0 common/libcommon.a(env_common.o)
 .bss           0x8078dbd0        0x8 common/libcommon.a(env_common_func.o)
                0x8078dbd4                env_ptr
 .bss           0x8078dbd8        0x0 common/libcommon.a(env_nand.o)
 .bss           0x8078dbd8        0x0 common/libcommon.a(exports.o)
 .bss           0x8078dbd8        0x0 common/libcommon.a(hi3716mv310_ddr_training_printf.o)
 .bss           0x8078dbd8        0x0 common/libcommon.a(image.o)
 .bss           0x8078dbd8     0x5878 common/libcommon.a(main.o)
                0x8078dbe4                hist_num
                0x8078dbe8                hist_lines
                0x80792bfc                hist_list
                0x80792c4c                console_buffer
 .bss           0x80793450        0xc common/libcommon.a(miiphyutil.o)
 .bss           0x8079345c     0x5000 common/libcommon.a(nand_logif.o)
 .bss           0x8079845c        0x0 common/libcommon.a(spiflash_logif.o)
 .bss           0x8079845c       0x48 common/libcommon.a(stdio.o)
                0x80798498                stdio_devices
 .bss           0x807984a4      0x43c common/libcommon.a(xyzModem.o)
 .bss           0x807988e0        0x0 common/libcommon.a(ddr_training_entry.o)
 .bss           0x807988e0      0x134 /home/zyq/share/HI3716STD310/source/boot/product/libproduct.a(main.o)
                0x80798a0c                g_u32HDMI_update_status_flag
                0x80798a10                hdmi_new_stat
 .bss           0x80798a14        0x4 /home/zyq/share/HI3716STD310/source/boot/product/libproduct.a(schedule.o)
 .bss           0x80798a18     0x2314 /home/zyq/share/HI3716STD310/source/boot/product/libproduct.a(boot_debug.o)
 .bss           0x8079ad2c        0x0 /home/zyq/share/HI3716STD310/source/boot/product/libproduct.a(boot_mem.o)
 .bss           0x8079ad2c        0x4 /home/zyq/share/HI3716STD310/source/boot/product/libproduct.a(common_str.o)
 .bss           0x8079ad30        0x0 /home/zyq/share/HI3716STD310/source/boot/product/libproduct.a(drv_osal.o)
 .bss           0x8079ad30        0x0 /home/zyq/share/HI3716STD310/source/boot/product/libproduct.a(hi_adp_flash.o)
 .bss           0x8079ad30        0x4 /home/zyq/share/HI3716STD310/source/boot/product/libproduct.a(hi_go_bliter.o)
 .bss           0x8079ad34        0x0 /home/zyq/share/HI3716STD310/source/boot/product/libproduct.a(hi_go_comm.o)
 .bss           0x8079ad34        0x4 /home/zyq/share/HI3716STD310/source/boot/product/libproduct.a(hi_go_decoder.o)
 .bss           0x8079ad38      0x644 /home/zyq/share/HI3716STD310/source/boot/product/libproduct.a(hi_go_gdev.o)
 .bss           0x8079b37c        0x4 /home/zyq/share/HI3716STD310/source/boot/product/libproduct.a(higo_memsurface.o)
 .bss           0x8079b380        0x0 /home/zyq/share/HI3716STD310/source/boot/product/libproduct.a(hi_go_surface.o)
 .bss           0x8079b380        0x0 /home/zyq/share/HI3716STD310/source/boot/product/libproduct.a(higo_surface.o)
 .bss           0x8079b380        0x0 /home/zyq/share/HI3716STD310/source/boot/product/libproduct.a(adp_jpeg.o)
 .bss           0x8079b380       0x60 /home/zyq/share/HI3716STD310/source/boot/product/libproduct.a(jpg_decctrl.o)
                0x8079b380                s_DecCtrlMem
 .bss           0x8079b3e0      0x178 /home/zyq/share/HI3716STD310/source/boot/product/libproduct.a(jpg_handle.o)
 .bss           0x8079b558      0x2a8 /home/zyq/share/HI3716STD310/source/boot/product/libproduct.a(jpg_hdec.o)
 .bss           0x8079b800        0x0 /home/zyq/share/HI3716STD310/source/boot/product/libproduct.a(jpg_parse.o)
 .bss           0x8079b800       0x14 /home/zyq/share/HI3716STD310/source/boot/product/libproduct.a(drv_i2c.o)
 .bss           0x8079b814       0x1c /home/zyq/share/HI3716STD310/source/boot/product/libproduct.a(drv_gpio.o)
                0x8079b818                g_GpioRegAddr
 .bss           0x8079b830      0x39c /home/zyq/share/HI3716STD310/source/boot/product/libproduct.a(boot_pdm.o)
 .bss           0x8079bbcc        0xc /home/zyq/share/HI3716STD310/source/boot/product/libproduct.a(hdmi.o)
 .bss           0x8079bbd8        0x4 /home/zyq/share/HI3716STD310/source/boot/product/libproduct.a(txvidp.o)
                0x8079bbda                SiIVidPathInIndex
                0x8079bbdb                SiIVidPathOutIndex
 .bss           0x8079bbdc        0x0 /home/zyq/share/HI3716STD310/source/boot/product/libproduct.a(infofrm.o)
 .bss           0x8079bbdc        0x0 /home/zyq/share/HI3716STD310/source/boot/product/libproduct.a(hdmitx.o)
 .bss           0x8079bbdc        0x0 /home/zyq/share/HI3716STD310/source/boot/product/libproduct.a(drv_hlviic.o)
 .bss           0x8079bbdc        0x0 /home/zyq/share/HI3716STD310/source/boot/product/libproduct.a(txvptbl.o)
 .bss           0x8079bbdc        0x0 /home/zyq/share/HI3716STD310/source/boot/product/libproduct.a(phy.o)
 .bss           0x8079bbdc        0x0 /home/zyq/share/HI3716STD310/source/boot/product/libproduct.a(de.o)
 .bss           0x8079bbdc        0x4 /home/zyq/share/HI3716STD310/source/boot/product/libproduct.a(hi_keyled_inner.o)
 .bss           0x8079bbe0        0x0 /home/zyq/share/HI3716STD310/source/boot/product/libproduct.a(cmd_otp.o)
 .bss           0x8079bbe0        0x4 /home/zyq/share/HI3716STD310/source/boot/product/libproduct.a(otp.o)
                0x8079bbe0                g_bOTPInit
 .bss           0x8079bbe4        0x0 /home/zyq/share/HI3716STD310/source/boot/product/libproduct.a(unf_otp.o)
 .bss           0x8079bbe4        0x0 /home/zyq/share/HI3716STD310/source/boot/product/libproduct.a(boot_logo.o)
 .bss           0x8079bbe4        0x0 /home/zyq/share/HI3716STD310/source/boot/product/libproduct.a(boot_adp.o)
 .bss           0x8079bbe4        0x0 /home/zyq/share/HI3716STD310/source/boot/product/libproduct.a(common_api.o)
 .bss           0x8079bbe4        0x0 /home/zyq/share/HI3716STD310/source/boot/product/libproduct.a(drv_reg_common.o)
 .bss           0x8079bbe4        0x0 /home/zyq/share/HI3716STD310/source/boot/product/libproduct.a(drv_grc_adpt.o)
 .bss           0x8079bbe4      0x7a0 /home/zyq/share/HI3716STD310/source/boot/product/libproduct.a(optm_hifb.o)
                0x8079bbe8                g_s32OptmGfxInitFlag
                0x8079bbec                g_enOptmGfxWorkMode
                0x8079bbf0                g_stGfxDevice
                0x8079c230                g_stGfxWbc2
                0x8079c28c                g_stGfxWbc3
                0x8079c2e8                g_stZmeModule
                0x8079c364                g_LayerId
 .bss           0x8079c384     0x1814 /home/zyq/share/HI3716STD310/source/boot/product/libproduct.a(optm_m_disp.o)
                0x8079db4c                g_PERI_CRG53
                0x8079db50                g_PERI_CRG54
                0x8079db54                g_PERI_CRG71
                0x8079db58                g_pOptmRegVirAddr
                0x8079db5c                g_pSysVPLL0_CFG
                0x8079db60                g_pSysVPLL1_CFG
                0x8079db64                u32WTEIntCnt
                0x8079db68                u32DHDVTIntCnt
                0x8079db6c                g_DhdUnf
                0x8079db70                g_DsdUnf
                0x8079db74                g_DispRegBuf
                0x8079db80                g_stDHDGammaCoeff
 .bss           0x8079db98       0xa8 /home/zyq/share/HI3716STD310/source/boot/product/libproduct.a(vo_wrap.o)
                0x8079dc18                bt470
                0x8079dc1c                g_stDac
                0x8079dc38                glb_csc
                0x8079dc3c                g_DispSetType
 .bss           0x8079dc40        0xc /home/zyq/share/HI3716STD310/source/boot/product/libproduct.a(optm_alg_api.o)
 .bss           0x8079dc4c        0x0 /home/zyq/share/HI3716STD310/source/boot/product/libproduct.a(optm_alg.o)
 .bss           0x8079dc4c        0x4 /home/zyq/share/HI3716STD310/source/boot/product/libproduct.a(adp_gfx.o)
 .bss           0x8079dc50      0x370 /home/zyq/share/HI3716STD310/source/boot/product/libproduct.a(adp_layer.o)
 .bss           0x8079dfc0        0xc /home/zyq/share/HI3716STD310/source/boot/product/libproduct.a(hi_api_mmz.o)
                0x8079dfc8                g_JpgMemOffset
 .bss           0x8079dfcc        0x0 /home/zyq/share/HI3716STD310/source/boot/product/libproduct.a(higo_blit.o)
 .bss           0x8079dfcc        0x0 /home/zyq/share/HI3716STD310/source/boot/product/libproduct.a(higo_io.o)
 .bss           0x8079dfcc       0x14 /home/zyq/share/HI3716STD310/source/boot/product/libproduct.a(higo_memory.o)
 .bss           0x8079dfe0        0x4 /home/zyq/share/HI3716STD310/source/boot/product/libproduct.a(hi_api_tde.o)
 .bss           0x8079dfe4        0x0 /home/zyq/share/HI3716STD310/source/boot/product/libproduct.a(tde_osictl.o)
 .bss           0x8079dfe4       0x20 /home/zyq/share/HI3716STD310/source/boot/product/libproduct.a(tde_osilist.o)
 .bss           0x8079e004        0x0 /home/zyq/share/HI3716STD310/source/boot/product/libproduct.a(tde_osr.o)
 .bss           0x8079e004       0x48 /home/zyq/share/HI3716STD310/source/boot/product/libproduct.a(wmalloc.o)
 .bss           0x8079e04c        0x0 /home/zyq/share/HI3716STD310/source/boot/product/libproduct.a(jpg_buf.o)
 .bss           0x8079e04c        0x8 /home/zyq/share/HI3716STD310/source/boot/product/libproduct.a(jpg_drvapi.o)
                0x8079e050                s_pRegReset
 .bss           0x8079e054        0x0 /home/zyq/share/HI3716STD310/source/boot/product/libproduct.a(vmtables.o)
 .bss           0x8079e054        0x0 /home/zyq/share/HI3716STD310/source/boot/product/libproduct.a(optm_disp_rwzb.o)
 .bss           0x8079e054      0x9e8 /home/zyq/share/HI3716STD310/source/boot/product/libproduct.a(optm_hal.o)
                0x8079e060                pVoReg
                0x8079e064                g_u32LnkLstEnable
                0x8079e068                g_s32OptmHalInitFlag
                0x8079e06c                g_u32LnkLstRegValue
                0x8079e3ac                g_u32LnkLstRegUpdate
                0x8079e6ec                g_u32LnkLstRegOffset
                0x8079ea2c                g_DispChnWidth
                0x8079ea34                g_DispChnHeight
 .bss           0x8079ea3c       0x1c /home/zyq/share/HI3716STD310/source/boot/product/libproduct.a(tde_hal.o)
 .bss           0x8079ea58        0x0 board/hi3716mv310/libhi3716mv310.a(board.o)
 .bss           0x8079ea58       0x80 board/hi3716mv310/libhi3716mv310.a(eth_cfg_setup.o)
 .bss           0x8079ead8        0x0 lib/libgeneric.a(crc16.o)
 .bss           0x8079ead8        0x0 lib/libgeneric.a(crc32.o)
 .bss           0x8079ead8        0x0 lib/libgeneric.a(ctype.o)
 .bss           0x8079ead8       0x14 lib/libgeneric.a(display_options.o)
 .bss           0x8079eaec        0x0 lib/libgeneric.a(div64.o)
 .bss           0x8079eaec        0x0 lib/libgeneric.a(net_utils.o)
 .bss           0x8079eaec        0x4 lib/libgeneric.a(string.o)
                0x8079eaec                ___strtok
 .bss           0x8079eaf0        0x0 lib/libgeneric.a(time.o)
 .bss           0x8079eaf0        0x0 lib/libgeneric.a(vsprintf.o)
 .bss           0x8079eaf0        0x0 lib/libgeneric.a(vsnprintf.o)
 .bss           0x8079eaf0       0x10 lib/libgeneric.a(reserve_mem.o)
 .bss           0x8079eb00      0x400 lib/libgeneric.a(parse_bootargs.o)
 .bss           0x8079ef00        0x0 lib/libgeneric.a(match_table.o)
 .bss           0x8079ef00        0x0 lib/libgeneric.a(bootimg.o)
 .bss           0x8079ef00        0x0 arch/arm/cpu/hi3716mv310/libhi3716mv310.a(cpu.o)
 .bss           0x8079ef00        0xc arch/arm/cpu/hi3716mv310/libhi3716mv310.a(timer.o)
                0x8079ef08                timer_clock
 .bss           0x8079ef0c        0x0 arch/arm/lib/libarm.a(mmu.o)
 .bss           0x8079ef0c        0x4 arch/arm/lib/libarm.a(bootm.o)
 .bss           0x8079ef10      0x4f8 arch/arm/lib/libarm.a(tags.o)
 .bss           0x8079f408        0x0 arch/arm/lib/libarm.a(cache.o)
 .bss           0x8079f408        0x0 arch/arm/lib/libarm.a(cache-cp15.o)
 .bss           0x8079f408        0x0 arch/arm/lib/libarm.a(reset.o)
 .bss           0x8079f408       0x2c arch/arm/lib/libarm.a(process.o)
 .bss           0x8079f434        0x0 drivers/mtd/nand/libnand.a(hinfc_yaffs.o)
 .bss           0x8079f434        0x0 drivers/mtd/nand/libnand.a(nand_util.o)
 .bss           0x8079f434        0x0 drivers/mtd/spi/libspi_flash.a(spi_compatible.o)
 .bss           0x8079f434       0x20 drivers/net/hisfv300/libhisfv300.a(net-drv.o)
 .bss           0x8079f454        0x8 drivers/net/hisfv300/libhisfv300.a(mii-drv.o)
 .bss           0x8079f45c        0x0 drivers/net/hisfv300/libhisfv300.a(ctrl.o)
 .bss           0x8079f45c        0x0 drivers/net/hisfv300/libhisfv300.a(glb.o)
 .bss           0x8079f45c        0x0 drivers/net/hisfv300/libhisfv300.a(mac.o)
 .bss           0x8079f45c        0x0 drivers/net/hisfv300/libhisfv300.a(mdio.o)
 .bss           0x8079f45c        0x0 drivers/net/hisfv300/libhisfv300.a(sys.o)
 .bss           0x8079f45c        0x0 drivers/net/hisfv300/libhisfv300.a(phy_fix.o)
 .bss           0x8079f45c        0x4 common/libcommon.a(flash_part.o)
 .bss           0x8079f460        0x0 /home/zyq/share/HI3716STD310/source/boot/fastboot/arch/arm/lib/eabi_compat.o
 .bss           0x8079f460        0x0 /opt/hisi-linux/x86-arm/arm-hisiv200-linux/bin/../lib/gcc/arm-hisiv200-linux-gnueabi/4.4.1/libgcc.a(_udivsi3.o)
 .bss           0x8079f460        0x0 /opt/hisi-linux/x86-arm/arm-hisiv200-linux/bin/../lib/gcc/arm-hisiv200-linux-gnueabi/4.4.1/libgcc.a(_divsi3.o)
 .bss           0x8079f460        0x0 /opt/hisi-linux/x86-arm/arm-hisiv200-linux/bin/../lib/gcc/arm-hisiv200-linux-gnueabi/4.4.1/libgcc.a(_lshrdi3.o)
 .bss           0x8079f460        0x0 /opt/hisi-linux/x86-arm/arm-hisiv200-linux/bin/../lib/gcc/arm-hisiv200-linux-gnueabi/4.4.1/libgcc.a(_ashrdi3.o)
 .bss           0x8079f460        0x0 /opt/hisi-linux/x86-arm/arm-hisiv200-linux/bin/../lib/gcc/arm-hisiv200-linux-gnueabi/4.4.1/libgcc.a(_ashldi3.o)
 .bss           0x8079f460        0x0 /opt/hisi-linux/x86-arm/arm-hisiv200-linux/bin/../lib/gcc/arm-hisiv200-linux-gnueabi/4.4.1/libgcc.a(_aeabi_uldivmod.o)
 .bss           0x8079f460        0x0 /opt/hisi-linux/x86-arm/arm-hisiv200-linux/bin/../lib/gcc/arm-hisiv200-linux-gnueabi/4.4.1/libgcc.a(_dvmd_lnx.o)
 .bss           0x8079f460        0x0 /opt/hisi-linux/x86-arm/arm-hisiv200-linux/bin/../lib/gcc/arm-hisiv200-linux-gnueabi/4.4.1/libgcc.a(bpabi.o)
 .bss           0x8079f460        0x0 /opt/hisi-linux/x86-arm/arm-hisiv200-linux/bin/../lib/gcc/arm-hisiv200-linux-gnueabi/4.4.1/libgcc.a(_divdi3.o)
 .bss           0x8079f460        0x0 /opt/hisi-linux/x86-arm/arm-hisiv200-linux/bin/../lib/gcc/arm-hisiv200-linux-gnueabi/4.4.1/libgcc.a(_udivdi3.o)
                0x8079f460                _end = .
Address of section .text set to 0x80700000
LOAD arch/arm/cpu/hi3716mv310/start.o
START GROUP
LOAD lib/libgeneric.a
LOAD lib/lzma/liblzma.a
LOAD lib/lzo/liblzo.a
LOAD arch/arm/cpu/hi3716mv310/libhi3716mv310.a
LOAD arch/arm/lib/libarm.a
LOAD net/libnet.a
LOAD drivers/mmc/libmmc.a
LOAD drivers/mtd/libmtd.a
LOAD drivers/mtd/nand/libnand.a
LOAD drivers/mtd/nand/hisfc400/libhisfc400.a
LOAD drivers/mtd/spi/libspi_flash.a
LOAD drivers/net/libnet.a
LOAD drivers/net/phy/libphy.a
LOAD drivers/net/hisfv300/libhisfv300.a
LOAD drivers/net/higmac/libhigmac.a
LOAD drivers/net/stmmac/libstmmac.a
LOAD drivers/serial/libserial.a
LOAD drivers/usb/eth/libusb_eth.a
LOAD common/libcommon.a
LOAD /home/zyq/share/HI3716STD310/source/boot/product/libproduct.a
LOAD board/hi3716mv310/libhi3716mv310.a
END GROUP
LOAD /home/zyq/share/HI3716STD310/source/boot/fastboot/arch/arm/lib/eabi_compat.o
LOAD /opt/hisi-linux/x86-arm/arm-hisiv200-linux/bin/../lib/gcc/arm-hisiv200-linux-gnueabi/4.4.1/libgcc.a
LOAD /opt/hisi-linux/x86-arm/arm-hisiv200-linux/bin/../lib/gcc/arm-hisiv200-linux-gnueabi/4.4.1/libgcc.a
OUTPUT(u-boot elf32-littlearm)

.ARM.attributes
                0x00000000       0x2f
 .ARM.attributes
                0x00000000       0x1f arch/arm/cpu/hi3716mv310/start.o
 .ARM.attributes
                0x0000001f       0x2f arch/arm/cpu/hi3716mv310/lowlevel_init.o
 .ARM.attributes
                0x0000004e       0x2f arch/arm/cpu/hi3716mv310/chip.o
 .ARM.attributes
                0x0000007d       0x1f arch/arm/cpu/hi3716mv310/ddrphy_train.o
 .ARM.attributes
                0x0000009c       0x2f arch/arm/cpu/hi3716mv310/ddrphy_training.o
 .ARM.attributes
                0x000000cb       0x2f arch/arm/cpu/hi3716mv310/ddr_dataeye_training.o
 .ARM.attributes
                0x000000fa       0x1f arch/arm/cpu/hi3716mv310/irq.o
 .ARM.attributes
                0x00000119       0x1f arch/arm/cpu/hi3716mv310/uart.o
 .ARM.attributes
                0x00000138       0x1f arch/arm/cpu/hi3716mv310/libhi3716mv310.a(ddrphy_training_print.o)
 .ARM.attributes
                0x00000157       0x2f arch/arm/cpu/hi3716mv310/libhi3716mv310.a(hi3716mv310_ddr_training.o)
 .ARM.attributes
                0x00000186       0x2f arch/arm/lib/libarm.a(board.o)
 .ARM.attributes
                0x000001b5       0x2f arch/arm/lib/libarm.a(interrupts.o)
 .ARM.attributes
                0x000001e4       0x2f arch/arm/lib/libarm.a(ddr_layout.o)
 .ARM.attributes
                0x00000213       0x2f arch/arm/lib/libarm.a(ddr_size.o)
 .ARM.attributes
                0x00000242       0x2f arch/arm/lib/libarm.a(cpu_info.o)
 .ARM.attributes
                0x00000271       0x2f net/libnet.a(eth.o)
 .ARM.attributes
                0x000002a0       0x2f net/libnet.a(net.o)
 .ARM.attributes
                0x000002cf       0x2f net/libnet.a(rarp.o)
 .ARM.attributes
                0x000002fe       0x2f net/libnet.a(tftp.o)
 .ARM.attributes
                0x0000032d       0x2f net/libnet.a(bootp.o)
 .ARM.attributes
                0x0000035c       0x2f drivers/mtd/nand/libnand.a(nand.o)
 .ARM.attributes
                0x0000038b       0x2f drivers/mtd/nand/libnand.a(hinfc_init.o)
 .ARM.attributes
                0x000003ba       0x2f drivers/mtd/nand/libnand.a(nand_base.o)
 .ARM.attributes
                0x000003e9       0x2f drivers/mtd/nand/libnand.a(nand_bbt.o)
 .ARM.attributes
                0x00000418       0x2f drivers/mtd/nand/libnand.a(nand_ecc.o)
 .ARM.attributes
                0x00000447       0x2f drivers/mtd/nand/libnand.a(nand_ids.o)
 .ARM.attributes
                0x00000476       0x2f drivers/mtd/nand/libnand.a(hinfc610.o)
 .ARM.attributes
                0x000004a5       0x2f drivers/mtd/nand/libnand.a(hinfc610_gen.o)
 .ARM.attributes
                0x000004d4       0x2f drivers/mtd/nand/libnand.a(hinfc610_read_retry.o)
 .ARM.attributes
                0x00000503       0x2f drivers/mtd/nand/libnand.a(hinfc610_ecc_info.o)
 .ARM.attributes
                0x00000532       0x2f drivers/mtd/nand/libnand.a(hinfc610_sync.o)
 .ARM.attributes
                0x00000561       0x2f drivers/mtd/nand/libnand.a(hinfc620_gen.o)
 .ARM.attributes
                0x00000590       0x2f drivers/mtd/nand/libnand.a(hinfc610_sync_onfi_23.o)
 .ARM.attributes
                0x000005bf       0x2f drivers/mtd/nand/libnand.a(hinfc610_sync_toggle.o)
 .ARM.attributes
                0x000005ee       0x2f drivers/mtd/nand/libnand.a(hinfc610_rw_latch.o)
 .ARM.attributes
                0x0000061d       0x2f drivers/mtd/nand/libnand.a(hinfc610_rw_latch_hi3716mv310.o)
 .ARM.attributes
                0x0000064c       0x2f drivers/mtd/nand/libnand.a(hinfc_gen.o)
 .ARM.attributes
                0x0000067b       0x2f drivers/mtd/nand/libnand.a(nand_spl_ids.o)
 .ARM.attributes
                0x000006aa       0x2f drivers/mtd/nand/libnand.a(hinfc610_read_retry_hynix_bg_cdie.o)
 .ARM.attributes
                0x000006d9       0x2f drivers/mtd/nand/libnand.a(hinfc610_read_retry_hynix_bg_bdie.o)
 .ARM.attributes
                0x00000708       0x2f drivers/mtd/nand/libnand.a(hinfc610_read_retry_hynix_cg_adie.o)
 .ARM.attributes
                0x00000737       0x2f drivers/mtd/nand/libnand.a(hinfc610_read_retry_micron.o)
 .ARM.attributes
                0x00000766       0x2f drivers/mtd/nand/libnand.a(hinfc610_read_retry_samsung.o)
 .ARM.attributes
                0x00000795       0x2f drivers/mtd/nand/libnand.a(hinfc610_read_retry_toshiba_24nm.o)
 .ARM.attributes
                0x000007c4       0x2f drivers/mtd/nand/libnand.a(hinfc610_read_retry_toshiba_19nm.o)
 .ARM.attributes
                0x000007f3       0x2f drivers/serial/libserial.a(serial_pl01x.o)
 .ARM.attributes
                0x00000822       0x2f common/libcommon.a(bootstrap.o)
 .ARM.attributes
                0x00000851       0x2f common/libcommon.a(cmd_boot.o)
 .ARM.attributes
                0x00000880       0x2f common/libcommon.a(cmd_bootm.o)
 .ARM.attributes
                0x000008af       0x2f common/libcommon.a(cmd_ddr_training.o)
 .ARM.attributes
                0x000008de       0x2f common/libcommon.a(cmd_getinfo.o)
 .ARM.attributes
                0x0000090d       0x2f common/libcommon.a(cmd_help.o)
 .ARM.attributes
                0x0000093c       0x2f common/libcommon.a(cmd_load.o)
 .ARM.attributes
                0x0000096b       0x2f common/libcommon.a(cmd_mem.o)
 .ARM.attributes
                0x0000099a       0x2f common/libcommon.a(cmd_mii.o)
 .ARM.attributes
                0x000009c9       0x2f common/libcommon.a(cmd_nand.o)
 .ARM.attributes
                0x000009f8       0x2f common/libcommon.a(cmd_net.o)
 .ARM.attributes
                0x00000a27       0x2f common/libcommon.a(cmd_nvedit.o)
 .ARM.attributes
                0x00000a56       0x2f common/libcommon.a(cmd_version.o)
 .ARM.attributes
                0x00000a85       0x2f common/libcommon.a(command.o)
 .ARM.attributes
                0x00000ab4       0x2f common/libcommon.a(console.o)
 .ARM.attributes
                0x00000ae3       0x2f common/libcommon.a(dlmalloc.o)
 .ARM.attributes
                0x00000b12       0x2f common/libcommon.a(env_common.o)
 .ARM.attributes
                0x00000b41       0x2f common/libcommon.a(env_common_func.o)
 .ARM.attributes
                0x00000b70       0x2f common/libcommon.a(env_nand.o)
 .ARM.attributes
                0x00000b9f       0x2f common/libcommon.a(exports.o)
 .ARM.attributes
                0x00000bce       0x2f common/libcommon.a(hi3716mv310_ddr_training_printf.o)
 .ARM.attributes
                0x00000bfd       0x2f common/libcommon.a(image.o)
 .ARM.attributes
                0x00000c2c       0x2f common/libcommon.a(main.o)
 .ARM.attributes
                0x00000c5b       0x2f common/libcommon.a(miiphyutil.o)
 .ARM.attributes
                0x00000c8a       0x2f common/libcommon.a(nand_logif.o)
 .ARM.attributes
                0x00000cb9       0x2f common/libcommon.a(spiflash_logif.o)
 .ARM.attributes
                0x00000ce8       0x2f common/libcommon.a(stdio.o)
 .ARM.attributes
                0x00000d17       0x2f common/libcommon.a(xyzModem.o)
 .ARM.attributes
                0x00000d46       0x1f common/libcommon.a(ddr_training_entry.o)
 .ARM.attributes
                0x00000d65       0x39 /home/zyq/share/HI3716STD310/source/boot/product/libproduct.a(main.o)
 .ARM.attributes
                0x00000d9e       0x39 /home/zyq/share/HI3716STD310/source/boot/product/libproduct.a(schedule.o)
 .ARM.attributes
                0x00000dd7       0x39 /home/zyq/share/HI3716STD310/source/boot/product/libproduct.a(boot_debug.o)
 .ARM.attributes
                0x00000e10       0x39 /home/zyq/share/HI3716STD310/source/boot/product/libproduct.a(boot_mem.o)
 .ARM.attributes
                0x00000e49       0x39 /home/zyq/share/HI3716STD310/source/boot/product/libproduct.a(common_str.o)
 .ARM.attributes
                0x00000e82       0x39 /home/zyq/share/HI3716STD310/source/boot/product/libproduct.a(drv_osal.o)
 .ARM.attributes
                0x00000ebb       0x39 /home/zyq/share/HI3716STD310/source/boot/product/libproduct.a(hi_adp_flash.o)
 .ARM.attributes
                0x00000ef4       0x39 /home/zyq/share/HI3716STD310/source/boot/product/libproduct.a(hi_go_bliter.o)
 .ARM.attributes
                0x00000f2d       0x39 /home/zyq/share/HI3716STD310/source/boot/product/libproduct.a(hi_go_comm.o)
 .ARM.attributes
                0x00000f66       0x39 /home/zyq/share/HI3716STD310/source/boot/product/libproduct.a(hi_go_decoder.o)
 .ARM.attributes
                0x00000f9f       0x39 /home/zyq/share/HI3716STD310/source/boot/product/libproduct.a(hi_go_gdev.o)
 .ARM.attributes
                0x00000fd8       0x39 /home/zyq/share/HI3716STD310/source/boot/product/libproduct.a(higo_memsurface.o)
 .ARM.attributes
                0x00001011       0x39 /home/zyq/share/HI3716STD310/source/boot/product/libproduct.a(hi_go_surface.o)
 .ARM.attributes
                0x0000104a       0x39 /home/zyq/share/HI3716STD310/source/boot/product/libproduct.a(higo_surface.o)
 .ARM.attributes
                0x00001083       0x39 /home/zyq/share/HI3716STD310/source/boot/product/libproduct.a(adp_jpeg.o)
 .ARM.attributes
                0x000010bc       0x39 /home/zyq/share/HI3716STD310/source/boot/product/libproduct.a(jpg_decctrl.o)
 .ARM.attributes
                0x000010f5       0x39 /home/zyq/share/HI3716STD310/source/boot/product/libproduct.a(jpg_handle.o)
 .ARM.attributes
                0x0000112e       0x39 /home/zyq/share/HI3716STD310/source/boot/product/libproduct.a(jpg_hdec.o)
 .ARM.attributes
                0x00001167       0x39 /home/zyq/share/HI3716STD310/source/boot/product/libproduct.a(jpg_parse.o)
 .ARM.attributes
                0x000011a0       0x39 /home/zyq/share/HI3716STD310/source/boot/product/libproduct.a(drv_i2c.o)
 .ARM.attributes
                0x000011d9       0x39 /home/zyq/share/HI3716STD310/source/boot/product/libproduct.a(drv_gpio.o)
 .ARM.attributes
                0x00001212       0x39 /home/zyq/share/HI3716STD310/source/boot/product/libproduct.a(boot_pdm.o)
 .ARM.attributes
                0x0000124b       0x39 /home/zyq/share/HI3716STD310/source/boot/product/libproduct.a(hdmi.o)
 .ARM.attributes
                0x00001284       0x39 /home/zyq/share/HI3716STD310/source/boot/product/libproduct.a(txvidp.o)
 .ARM.attributes
                0x000012bd       0x39 /home/zyq/share/HI3716STD310/source/boot/product/libproduct.a(infofrm.o)
 .ARM.attributes
                0x000012f6       0x39 /home/zyq/share/HI3716STD310/source/boot/product/libproduct.a(hdmitx.o)
 .ARM.attributes
                0x0000132f       0x39 /home/zyq/share/HI3716STD310/source/boot/product/libproduct.a(drv_hlviic.o)
 .ARM.attributes
                0x00001368       0x39 /home/zyq/share/HI3716STD310/source/boot/product/libproduct.a(txvptbl.o)
 .ARM.attributes
                0x000013a1       0x39 /home/zyq/share/HI3716STD310/source/boot/product/libproduct.a(phy.o)
 .ARM.attributes
                0x000013da       0x39 /home/zyq/share/HI3716STD310/source/boot/product/libproduct.a(de.o)
 .ARM.attributes
                0x00001413       0x39 /home/zyq/share/HI3716STD310/source/boot/product/libproduct.a(hi_keyled_inner.o)
 .ARM.attributes
                0x0000144c       0x39 /home/zyq/share/HI3716STD310/source/boot/product/libproduct.a(cmd_otp.o)
 .ARM.attributes
                0x00001485       0x39 /home/zyq/share/HI3716STD310/source/boot/product/libproduct.a(otp.o)
 .ARM.attributes
                0x000014be       0x39 /home/zyq/share/HI3716STD310/source/boot/product/libproduct.a(unf_otp.o)
 .ARM.attributes
                0x000014f7       0x39 /home/zyq/share/HI3716STD310/source/boot/product/libproduct.a(boot_logo.o)
 .ARM.attributes
                0x00001530       0x39 /home/zyq/share/HI3716STD310/source/boot/product/libproduct.a(boot_adp.o)
 .ARM.attributes
                0x00001569       0x39 /home/zyq/share/HI3716STD310/source/boot/product/libproduct.a(common_api.o)
 .ARM.attributes
                0x000015a2       0x39 /home/zyq/share/HI3716STD310/source/boot/product/libproduct.a(drv_reg_common.o)
 .ARM.attributes
                0x000015db       0x39 /home/zyq/share/HI3716STD310/source/boot/product/libproduct.a(drv_grc_adpt.o)
 .ARM.attributes
                0x00001614       0x39 /home/zyq/share/HI3716STD310/source/boot/product/libproduct.a(optm_hifb.o)
 .ARM.attributes
                0x0000164d       0x39 /home/zyq/share/HI3716STD310/source/boot/product/libproduct.a(optm_m_disp.o)
 .ARM.attributes
                0x00001686       0x39 /home/zyq/share/HI3716STD310/source/boot/product/libproduct.a(vo_wrap.o)
 .ARM.attributes
                0x000016bf       0x39 /home/zyq/share/HI3716STD310/source/boot/product/libproduct.a(optm_alg_api.o)
 .ARM.attributes
                0x000016f8       0x39 /home/zyq/share/HI3716STD310/source/boot/product/libproduct.a(optm_alg.o)
 .ARM.attributes
                0x00001731       0x39 /home/zyq/share/HI3716STD310/source/boot/product/libproduct.a(adp_gfx.o)
 .ARM.attributes
                0x0000176a       0x39 /home/zyq/share/HI3716STD310/source/boot/product/libproduct.a(adp_layer.o)
 .ARM.attributes
                0x000017a3       0x39 /home/zyq/share/HI3716STD310/source/boot/product/libproduct.a(hi_api_mmz.o)
 .ARM.attributes
                0x000017dc       0x39 /home/zyq/share/HI3716STD310/source/boot/product/libproduct.a(higo_blit.o)
 .ARM.attributes
                0x00001815       0x39 /home/zyq/share/HI3716STD310/source/boot/product/libproduct.a(higo_io.o)
 .ARM.attributes
                0x0000184e       0x39 /home/zyq/share/HI3716STD310/source/boot/product/libproduct.a(higo_memory.o)
 .ARM.attributes
                0x00001887       0x39 /home/zyq/share/HI3716STD310/source/boot/product/libproduct.a(hi_api_tde.o)
 .ARM.attributes
                0x000018c0       0x39 /home/zyq/share/HI3716STD310/source/boot/product/libproduct.a(tde_osictl.o)
 .ARM.attributes
                0x000018f9       0x39 /home/zyq/share/HI3716STD310/source/boot/product/libproduct.a(tde_osilist.o)
 .ARM.attributes
                0x00001932       0x39 /home/zyq/share/HI3716STD310/source/boot/product/libproduct.a(tde_osr.o)
 .ARM.attributes
                0x0000196b       0x39 /home/zyq/share/HI3716STD310/source/boot/product/libproduct.a(wmalloc.o)
 .ARM.attributes
                0x000019a4       0x39 /home/zyq/share/HI3716STD310/source/boot/product/libproduct.a(jpg_buf.o)
 .ARM.attributes
                0x000019dd       0x39 /home/zyq/share/HI3716STD310/source/boot/product/libproduct.a(jpg_drvapi.o)
 .ARM.attributes
                0x00001a16       0x39 /home/zyq/share/HI3716STD310/source/boot/product/libproduct.a(vmtables.o)
 .ARM.attributes
                0x00001a4f       0x39 /home/zyq/share/HI3716STD310/source/boot/product/libproduct.a(optm_disp_rwzb.o)
 .ARM.attributes
                0x00001a88       0x39 /home/zyq/share/HI3716STD310/source/boot/product/libproduct.a(optm_hal.o)
 .ARM.attributes
                0x00001ac1       0x39 /home/zyq/share/HI3716STD310/source/boot/product/libproduct.a(tde_hal.o)
 .ARM.attributes
                0x00001afa       0x2f board/hi3716mv310/libhi3716mv310.a(board.o)
 .ARM.attributes
                0x00001b29       0x2f board/hi3716mv310/libhi3716mv310.a(eth_cfg_setup.o)
 .ARM.attributes
                0x00001b58       0x2f lib/libgeneric.a(crc16.o)
 .ARM.attributes
                0x00001b87       0x2f lib/libgeneric.a(crc32.o)
 .ARM.attributes
                0x00001bb6       0x2f lib/libgeneric.a(ctype.o)
 .ARM.attributes
                0x00001be5       0x2f lib/libgeneric.a(display_options.o)
 .ARM.attributes
                0x00001c14       0x2f lib/libgeneric.a(div64.o)
 .ARM.attributes
                0x00001c43       0x2f lib/libgeneric.a(net_utils.o)
 .ARM.attributes
                0x00001c72       0x2f lib/libgeneric.a(string.o)
 .ARM.attributes
                0x00001ca1       0x2f lib/libgeneric.a(time.o)
 .ARM.attributes
                0x00001cd0       0x2f lib/libgeneric.a(vsprintf.o)
 .ARM.attributes
                0x00001cff       0x2f lib/libgeneric.a(vsnprintf.o)
 .ARM.attributes
                0x00001d2e       0x2f lib/libgeneric.a(reserve_mem.o)
 .ARM.attributes
                0x00001d5d       0x2f lib/libgeneric.a(parse_bootargs.o)
 .ARM.attributes
                0x00001d8c       0x2f lib/libgeneric.a(match_table.o)
 .ARM.attributes
                0x00001dbb       0x2f lib/libgeneric.a(bootimg.o)
 .ARM.attributes
                0x00001dea       0x2f arch/arm/cpu/hi3716mv310/libhi3716mv310.a(cpu.o)
 .ARM.attributes
                0x00001e19       0x2f arch/arm/cpu/hi3716mv310/libhi3716mv310.a(timer.o)
 .ARM.attributes
                0x00001e48       0x1f arch/arm/lib/libarm.a(mmu.o)
 .ARM.attributes
                0x00001e67       0x2f arch/arm/lib/libarm.a(bootm.o)
 .ARM.attributes
                0x00001e96       0x2f arch/arm/lib/libarm.a(tags.o)
 .ARM.attributes
                0x00001ec5       0x2f arch/arm/lib/libarm.a(cache.o)
 .ARM.attributes
                0x00001ef4       0x2f arch/arm/lib/libarm.a(cache-cp15.o)
 .ARM.attributes
                0x00001f23       0x2f arch/arm/lib/libarm.a(reset.o)
 .ARM.attributes
                0x00001f52       0x2f arch/arm/lib/libarm.a(process.o)
 .ARM.attributes
                0x00001f81       0x2f drivers/mtd/nand/libnand.a(hinfc_yaffs.o)
 .ARM.attributes
                0x00001fb0       0x2f drivers/mtd/nand/libnand.a(nand_util.o)
 .ARM.attributes
                0x00001fdf       0x2f drivers/mtd/spi/libspi_flash.a(spi_compatible.o)
 .ARM.attributes
                0x0000200e       0x2f drivers/net/hisfv300/libhisfv300.a(net-drv.o)
 .ARM.attributes
                0x0000203d       0x2f drivers/net/hisfv300/libhisfv300.a(mii-drv.o)
 .ARM.attributes
                0x0000206c       0x2f drivers/net/hisfv300/libhisfv300.a(ctrl.o)
 .ARM.attributes
                0x0000209b       0x2f drivers/net/hisfv300/libhisfv300.a(glb.o)
 .ARM.attributes
                0x000020ca       0x2f drivers/net/hisfv300/libhisfv300.a(mac.o)
 .ARM.attributes
                0x000020f9       0x2f drivers/net/hisfv300/libhisfv300.a(mdio.o)
 .ARM.attributes
                0x00002128       0x2f drivers/net/hisfv300/libhisfv300.a(sys.o)
 .ARM.attributes
                0x00002157       0x2f drivers/net/hisfv300/libhisfv300.a(phy_fix.o)
 .ARM.attributes
                0x00002186       0x2f common/libcommon.a(flash_part.o)
 .ARM.attributes
                0x000021b5       0x2f /home/zyq/share/HI3716STD310/source/boot/fastboot/arch/arm/lib/eabi_compat.o
 .ARM.attributes
                0x000021e4       0x1f /opt/hisi-linux/x86-arm/arm-hisiv200-linux/bin/../lib/gcc/arm-hisiv200-linux-gnueabi/4.4.1/libgcc.a(_udivsi3.o)
 .ARM.attributes
                0x00002203       0x1f /opt/hisi-linux/x86-arm/arm-hisiv200-linux/bin/../lib/gcc/arm-hisiv200-linux-gnueabi/4.4.1/libgcc.a(_divsi3.o)
 .ARM.attributes
                0x00002222       0x1f /opt/hisi-linux/x86-arm/arm-hisiv200-linux/bin/../lib/gcc/arm-hisiv200-linux-gnueabi/4.4.1/libgcc.a(_lshrdi3.o)
 .ARM.attributes
                0x00002241       0x1f /opt/hisi-linux/x86-arm/arm-hisiv200-linux/bin/../lib/gcc/arm-hisiv200-linux-gnueabi/4.4.1/libgcc.a(_ashrdi3.o)
 .ARM.attributes
                0x00002260       0x1f /opt/hisi-linux/x86-arm/arm-hisiv200-linux/bin/../lib/gcc/arm-hisiv200-linux-gnueabi/4.4.1/libgcc.a(_ashldi3.o)
 .ARM.attributes
                0x0000227f       0x1f /opt/hisi-linux/x86-arm/arm-hisiv200-linux/bin/../lib/gcc/arm-hisiv200-linux-gnueabi/4.4.1/libgcc.a(_aeabi_uldivmod.o)
 .ARM.attributes
                0x0000229e       0x1f /opt/hisi-linux/x86-arm/arm-hisiv200-linux/bin/../lib/gcc/arm-hisiv200-linux-gnueabi/4.4.1/libgcc.a(_dvmd_lnx.o)
 .ARM.attributes
                0x000022bd       0x2d /opt/hisi-linux/x86-arm/arm-hisiv200-linux/bin/../lib/gcc/arm-hisiv200-linux-gnueabi/4.4.1/libgcc.a(bpabi.o)
 .ARM.attributes
                0x000022ea       0x2d /opt/hisi-linux/x86-arm/arm-hisiv200-linux/bin/../lib/gcc/arm-hisiv200-linux-gnueabi/4.4.1/libgcc.a(_divdi3.o)
 .ARM.attributes
                0x00002317       0x2d /opt/hisi-linux/x86-arm/arm-hisiv200-linux/bin/../lib/gcc/arm-hisiv200-linux-gnueabi/4.4.1/libgcc.a(_udivdi3.o)

.comment        0x00000000     0x292c
 .comment       0x00000000       0x3e arch/arm/cpu/hi3716mv310/lowlevel_init.o
 .comment       0x0000003e       0x3e arch/arm/cpu/hi3716mv310/chip.o
 .comment       0x0000007c       0x3e arch/arm/cpu/hi3716mv310/ddrphy_training.o
 .comment       0x000000ba       0x3e arch/arm/cpu/hi3716mv310/ddr_dataeye_training.o
 .comment       0x000000f8       0x3e arch/arm/cpu/hi3716mv310/libhi3716mv310.a(hi3716mv310_ddr_training.o)
 .comment       0x00000136       0x3e arch/arm/lib/libarm.a(board.o)
 .comment       0x00000174       0x3e arch/arm/lib/libarm.a(interrupts.o)
 .comment       0x000001b2       0x3e arch/arm/lib/libarm.a(ddr_layout.o)
 .comment       0x000001f0       0x3e arch/arm/lib/libarm.a(ddr_size.o)
 .comment       0x0000022e       0x3e arch/arm/lib/libarm.a(cpu_info.o)
 .comment       0x0000026c       0x3e net/libnet.a(eth.o)
 .comment       0x000002aa       0x3e net/libnet.a(net.o)
 .comment       0x000002e8       0x3e net/libnet.a(rarp.o)
 .comment       0x00000326       0x3e net/libnet.a(tftp.o)
 .comment       0x00000364       0x3e net/libnet.a(bootp.o)
 .comment       0x000003a2       0x3e drivers/mtd/nand/libnand.a(nand.o)
 .comment       0x000003e0       0x3e drivers/mtd/nand/libnand.a(hinfc_init.o)
 .comment       0x0000041e       0x3e drivers/mtd/nand/libnand.a(nand_base.o)
 .comment       0x0000045c       0x3e drivers/mtd/nand/libnand.a(nand_bbt.o)
 .comment       0x0000049a       0x3e drivers/mtd/nand/libnand.a(nand_ecc.o)
 .comment       0x000004d8       0x3e drivers/mtd/nand/libnand.a(nand_ids.o)
 .comment       0x00000516       0x3e drivers/mtd/nand/libnand.a(hinfc610.o)
 .comment       0x00000554       0x3e drivers/mtd/nand/libnand.a(hinfc610_gen.o)
 .comment       0x00000592       0x3e drivers/mtd/nand/libnand.a(hinfc610_read_retry.o)
 .comment       0x000005d0       0x3e drivers/mtd/nand/libnand.a(hinfc610_ecc_info.o)
 .comment       0x0000060e       0x3e drivers/mtd/nand/libnand.a(hinfc610_sync.o)
 .comment       0x0000064c       0x3e drivers/mtd/nand/libnand.a(hinfc620_gen.o)
 .comment       0x0000068a       0x3e drivers/mtd/nand/libnand.a(hinfc610_sync_onfi_23.o)
 .comment       0x000006c8       0x3e drivers/mtd/nand/libnand.a(hinfc610_sync_toggle.o)
 .comment       0x00000706       0x3e drivers/mtd/nand/libnand.a(hinfc610_rw_latch.o)
 .comment       0x00000744       0x3e drivers/mtd/nand/libnand.a(hinfc610_rw_latch_hi3716mv310.o)
 .comment       0x00000782       0x3e drivers/mtd/nand/libnand.a(hinfc_gen.o)
 .comment       0x000007c0       0x3e drivers/mtd/nand/libnand.a(nand_spl_ids.o)
 .comment       0x000007fe       0x3e drivers/mtd/nand/libnand.a(hinfc610_read_retry_hynix_bg_cdie.o)
 .comment       0x0000083c       0x3e drivers/mtd/nand/libnand.a(hinfc610_read_retry_hynix_bg_bdie.o)
 .comment       0x0000087a       0x3e drivers/mtd/nand/libnand.a(hinfc610_read_retry_hynix_cg_adie.o)
 .comment       0x000008b8       0x3e drivers/mtd/nand/libnand.a(hinfc610_read_retry_micron.o)
 .comment       0x000008f6       0x3e drivers/mtd/nand/libnand.a(hinfc610_read_retry_samsung.o)
 .comment       0x00000934       0x3e drivers/mtd/nand/libnand.a(hinfc610_read_retry_toshiba_24nm.o)
 .comment       0x00000972       0x3e drivers/mtd/nand/libnand.a(hinfc610_read_retry_toshiba_19nm.o)
 .comment       0x000009b0       0x3e drivers/serial/libserial.a(serial_pl01x.o)
 .comment       0x000009ee       0x3e common/libcommon.a(bootstrap.o)
 .comment       0x00000a2c       0x3e common/libcommon.a(cmd_boot.o)
 .comment       0x00000a6a       0x3e common/libcommon.a(cmd_bootm.o)
 .comment       0x00000aa8       0x3e common/libcommon.a(cmd_ddr_training.o)
 .comment       0x00000ae6       0x3e common/libcommon.a(cmd_getinfo.o)
 .comment       0x00000b24       0x3e common/libcommon.a(cmd_help.o)
 .comment       0x00000b62       0x3e common/libcommon.a(cmd_load.o)
 .comment       0x00000ba0       0x3e common/libcommon.a(cmd_mem.o)
 .comment       0x00000bde       0x3e common/libcommon.a(cmd_mii.o)
 .comment       0x00000c1c       0x3e common/libcommon.a(cmd_nand.o)
 .comment       0x00000c5a       0x3e common/libcommon.a(cmd_net.o)
 .comment       0x00000c98       0x3e common/libcommon.a(cmd_nvedit.o)
 .comment       0x00000cd6       0x3e common/libcommon.a(cmd_version.o)
 .comment       0x00000d14       0x3e common/libcommon.a(command.o)
 .comment       0x00000d52       0x3e common/libcommon.a(console.o)
 .comment       0x00000d90       0x3e common/libcommon.a(dlmalloc.o)
 .comment       0x00000dce       0x3e common/libcommon.a(env_common.o)
 .comment       0x00000e0c       0x3e common/libcommon.a(env_common_func.o)
 .comment       0x00000e4a       0x3e common/libcommon.a(env_nand.o)
 .comment       0x00000e88       0x3e common/libcommon.a(exports.o)
 .comment       0x00000ec6       0x3e common/libcommon.a(hi3716mv310_ddr_training_printf.o)
 .comment       0x00000f04       0x3e common/libcommon.a(image.o)
 .comment       0x00000f42       0x3e common/libcommon.a(main.o)
 .comment       0x00000f80       0x3e common/libcommon.a(miiphyutil.o)
 .comment       0x00000fbe       0x3e common/libcommon.a(nand_logif.o)
 .comment       0x00000ffc       0x3e common/libcommon.a(spiflash_logif.o)
 .comment       0x0000103a       0x3e common/libcommon.a(stdio.o)
 .comment       0x00001078       0x3e common/libcommon.a(xyzModem.o)
 .comment       0x000010b6       0x3e /home/zyq/share/HI3716STD310/source/boot/product/libproduct.a(main.o)
 .comment       0x000010f4       0x3e /home/zyq/share/HI3716STD310/source/boot/product/libproduct.a(schedule.o)
 .comment       0x00001132       0x3e /home/zyq/share/HI3716STD310/source/boot/product/libproduct.a(boot_debug.o)
 .comment       0x00001170       0x3e /home/zyq/share/HI3716STD310/source/boot/product/libproduct.a(boot_mem.o)
 .comment       0x000011ae       0x3e /home/zyq/share/HI3716STD310/source/boot/product/libproduct.a(common_str.o)
 .comment       0x000011ec       0x3e /home/zyq/share/HI3716STD310/source/boot/product/libproduct.a(drv_osal.o)
 .comment       0x0000122a       0x3e /home/zyq/share/HI3716STD310/source/boot/product/libproduct.a(hi_adp_flash.o)
 .comment       0x00001268       0x3e /home/zyq/share/HI3716STD310/source/boot/product/libproduct.a(hi_go_bliter.o)
 .comment       0x000012a6       0x3e /home/zyq/share/HI3716STD310/source/boot/product/libproduct.a(hi_go_comm.o)
 .comment       0x000012e4       0x3e /home/zyq/share/HI3716STD310/source/boot/product/libproduct.a(hi_go_decoder.o)
 .comment       0x00001322       0x3e /home/zyq/share/HI3716STD310/source/boot/product/libproduct.a(hi_go_gdev.o)
 .comment       0x00001360       0x3e /home/zyq/share/HI3716STD310/source/boot/product/libproduct.a(higo_memsurface.o)
 .comment       0x0000139e       0x3e /home/zyq/share/HI3716STD310/source/boot/product/libproduct.a(hi_go_surface.o)
 .comment       0x000013dc       0x3e /home/zyq/share/HI3716STD310/source/boot/product/libproduct.a(higo_surface.o)
 .comment       0x0000141a       0x3e /home/zyq/share/HI3716STD310/source/boot/product/libproduct.a(adp_jpeg.o)
 .comment       0x00001458       0x3e /home/zyq/share/HI3716STD310/source/boot/product/libproduct.a(jpg_decctrl.o)
 .comment       0x00001496       0x3e /home/zyq/share/HI3716STD310/source/boot/product/libproduct.a(jpg_handle.o)
 .comment       0x000014d4       0x3e /home/zyq/share/HI3716STD310/source/boot/product/libproduct.a(jpg_hdec.o)
 .comment       0x00001512       0x3e /home/zyq/share/HI3716STD310/source/boot/product/libproduct.a(jpg_parse.o)
 .comment       0x00001550       0x3e /home/zyq/share/HI3716STD310/source/boot/product/libproduct.a(drv_i2c.o)
 .comment       0x0000158e       0x3e /home/zyq/share/HI3716STD310/source/boot/product/libproduct.a(drv_gpio.o)
 .comment       0x000015cc       0x3e /home/zyq/share/HI3716STD310/source/boot/product/libproduct.a(boot_pdm.o)
 .comment       0x0000160a       0x3e /home/zyq/share/HI3716STD310/source/boot/product/libproduct.a(hdmi.o)
 .comment       0x00001648       0x3e /home/zyq/share/HI3716STD310/source/boot/product/libproduct.a(txvidp.o)
 .comment       0x00001686       0x3e /home/zyq/share/HI3716STD310/source/boot/product/libproduct.a(infofrm.o)
 .comment       0x000016c4       0x3e /home/zyq/share/HI3716STD310/source/boot/product/libproduct.a(hdmitx.o)
 .comment       0x00001702       0x3e /home/zyq/share/HI3716STD310/source/boot/product/libproduct.a(drv_hlviic.o)
 .comment       0x00001740       0x3e /home/zyq/share/HI3716STD310/source/boot/product/libproduct.a(txvptbl.o)
 .comment       0x0000177e       0x3e /home/zyq/share/HI3716STD310/source/boot/product/libproduct.a(phy.o)
 .comment       0x000017bc       0x3e /home/zyq/share/HI3716STD310/source/boot/product/libproduct.a(de.o)
 .comment       0x000017fa       0x3e /home/zyq/share/HI3716STD310/source/boot/product/libproduct.a(hi_keyled_inner.o)
 .comment       0x00001838       0x3e /home/zyq/share/HI3716STD310/source/boot/product/libproduct.a(cmd_otp.o)
 .comment       0x00001876       0x3e /home/zyq/share/HI3716STD310/source/boot/product/libproduct.a(otp.o)
 .comment       0x000018b4       0x3e /home/zyq/share/HI3716STD310/source/boot/product/libproduct.a(unf_otp.o)
 .comment       0x000018f2       0x3e /home/zyq/share/HI3716STD310/source/boot/product/libproduct.a(boot_logo.o)
 .comment       0x00001930       0x3e /home/zyq/share/HI3716STD310/source/boot/product/libproduct.a(boot_adp.o)
 .comment       0x0000196e       0x3e /home/zyq/share/HI3716STD310/source/boot/product/libproduct.a(common_api.o)
 .comment       0x000019ac       0x3e /home/zyq/share/HI3716STD310/source/boot/product/libproduct.a(drv_reg_common.o)
 .comment       0x000019ea       0x3e /home/zyq/share/HI3716STD310/source/boot/product/libproduct.a(drv_grc_adpt.o)
 .comment       0x00001a28       0x3e /home/zyq/share/HI3716STD310/source/boot/product/libproduct.a(optm_hifb.o)
 .comment       0x00001a66       0x3e /home/zyq/share/HI3716STD310/source/boot/product/libproduct.a(optm_m_disp.o)
 .comment       0x00001aa4       0x3e /home/zyq/share/HI3716STD310/source/boot/product/libproduct.a(vo_wrap.o)
 .comment       0x00001ae2       0x3e /home/zyq/share/HI3716STD310/source/boot/product/libproduct.a(optm_alg_api.o)
 .comment       0x00001b20       0x3e /home/zyq/share/HI3716STD310/source/boot/product/libproduct.a(optm_alg.o)
 .comment       0x00001b5e       0x3e /home/zyq/share/HI3716STD310/source/boot/product/libproduct.a(adp_gfx.o)
 .comment       0x00001b9c       0x3e /home/zyq/share/HI3716STD310/source/boot/product/libproduct.a(adp_layer.o)
 .comment       0x00001bda       0x3e /home/zyq/share/HI3716STD310/source/boot/product/libproduct.a(hi_api_mmz.o)
 .comment       0x00001c18       0x3e /home/zyq/share/HI3716STD310/source/boot/product/libproduct.a(higo_blit.o)
 .comment       0x00001c56       0x3e /home/zyq/share/HI3716STD310/source/boot/product/libproduct.a(higo_io.o)
 .comment       0x00001c94       0x3e /home/zyq/share/HI3716STD310/source/boot/product/libproduct.a(higo_memory.o)
 .comment       0x00001cd2       0x3e /home/zyq/share/HI3716STD310/source/boot/product/libproduct.a(hi_api_tde.o)
 .comment       0x00001d10       0x3e /home/zyq/share/HI3716STD310/source/boot/product/libproduct.a(tde_osictl.o)
 .comment       0x00001d4e       0x3e /home/zyq/share/HI3716STD310/source/boot/product/libproduct.a(tde_osilist.o)
 .comment       0x00001d8c       0x3e /home/zyq/share/HI3716STD310/source/boot/product/libproduct.a(tde_osr.o)
 .comment       0x00001dca       0x3e /home/zyq/share/HI3716STD310/source/boot/product/libproduct.a(wmalloc.o)
 .comment       0x00001e08       0x3e /home/zyq/share/HI3716STD310/source/boot/product/libproduct.a(jpg_buf.o)
 .comment       0x00001e46       0x3e /home/zyq/share/HI3716STD310/source/boot/product/libproduct.a(jpg_drvapi.o)
 .comment       0x00001e84       0x3e /home/zyq/share/HI3716STD310/source/boot/product/libproduct.a(vmtables.o)
 .comment       0x00001ec2       0x3e /home/zyq/share/HI3716STD310/source/boot/product/libproduct.a(optm_disp_rwzb.o)
 .comment       0x00001f00       0x3e /home/zyq/share/HI3716STD310/source/boot/product/libproduct.a(optm_hal.o)
 .comment       0x00001f3e       0x3e /home/zyq/share/HI3716STD310/source/boot/product/libproduct.a(tde_hal.o)
 .comment       0x00001f7c       0x3e board/hi3716mv310/libhi3716mv310.a(board.o)
 .comment       0x00001fba       0x3e board/hi3716mv310/libhi3716mv310.a(eth_cfg_setup.o)
 .comment       0x00001ff8       0x3e lib/libgeneric.a(crc16.o)
 .comment       0x00002036       0x3e lib/libgeneric.a(crc32.o)
 .comment       0x00002074       0x3e lib/libgeneric.a(ctype.o)
 .comment       0x000020b2       0x3e lib/libgeneric.a(display_options.o)
 .comment       0x000020f0       0x3e lib/libgeneric.a(div64.o)
 .comment       0x0000212e       0x3e lib/libgeneric.a(net_utils.o)
 .comment       0x0000216c       0x3e lib/libgeneric.a(string.o)
 .comment       0x000021aa       0x3e lib/libgeneric.a(time.o)
 .comment       0x000021e8       0x3e lib/libgeneric.a(vsprintf.o)
 .comment       0x00002226       0x3e lib/libgeneric.a(vsnprintf.o)
 .comment       0x00002264       0x3e lib/libgeneric.a(reserve_mem.o)
 .comment       0x000022a2       0x3e lib/libgeneric.a(parse_bootargs.o)
 .comment       0x000022e0       0x3e lib/libgeneric.a(match_table.o)
 .comment       0x0000231e       0x3e lib/libgeneric.a(bootimg.o)
 .comment       0x0000235c       0x3e arch/arm/cpu/hi3716mv310/libhi3716mv310.a(cpu.o)
 .comment       0x0000239a       0x3e arch/arm/cpu/hi3716mv310/libhi3716mv310.a(timer.o)
 .comment       0x000023d8       0x3e arch/arm/lib/libarm.a(bootm.o)
 .comment       0x00002416       0x3e arch/arm/lib/libarm.a(tags.o)
 .comment       0x00002454       0x3e arch/arm/lib/libarm.a(cache.o)
 .comment       0x00002492       0x3e arch/arm/lib/libarm.a(cache-cp15.o)
 .comment       0x000024d0       0x3e arch/arm/lib/libarm.a(reset.o)
 .comment       0x0000250e       0x3e arch/arm/lib/libarm.a(process.o)
 .comment       0x0000254c       0x3e drivers/mtd/nand/libnand.a(hinfc_yaffs.o)
 .comment       0x0000258a       0x3e drivers/mtd/nand/libnand.a(nand_util.o)
 .comment       0x000025c8       0x3e drivers/mtd/spi/libspi_flash.a(spi_compatible.o)
 .comment       0x00002606       0x3e drivers/net/hisfv300/libhisfv300.a(net-drv.o)
 .comment       0x00002644       0x3e drivers/net/hisfv300/libhisfv300.a(mii-drv.o)
 .comment       0x00002682       0x3e drivers/net/hisfv300/libhisfv300.a(ctrl.o)
 .comment       0x000026c0       0x3e drivers/net/hisfv300/libhisfv300.a(glb.o)
 .comment       0x000026fe       0x3e drivers/net/hisfv300/libhisfv300.a(mac.o)
 .comment       0x0000273c       0x3e drivers/net/hisfv300/libhisfv300.a(mdio.o)
 .comment       0x0000277a       0x3e drivers/net/hisfv300/libhisfv300.a(sys.o)
 .comment       0x000027b8       0x3e drivers/net/hisfv300/libhisfv300.a(phy_fix.o)
 .comment       0x000027f6       0x3e common/libcommon.a(flash_part.o)
 .comment       0x00002834       0x3e /home/zyq/share/HI3716STD310/source/boot/fastboot/arch/arm/lib/eabi_compat.o
 .comment       0x00002872       0x3e /opt/hisi-linux/x86-arm/arm-hisiv200-linux/bin/../lib/gcc/arm-hisiv200-linux-gnueabi/4.4.1/libgcc.a(bpabi.o)
 .comment       0x000028b0       0x3e /opt/hisi-linux/x86-arm/arm-hisiv200-linux/bin/../lib/gcc/arm-hisiv200-linux-gnueabi/4.4.1/libgcc.a(_divdi3.o)
 .comment       0x000028ee       0x3e /opt/hisi-linux/x86-arm/arm-hisiv200-linux/bin/../lib/gcc/arm-hisiv200-linux-gnueabi/4.4.1/libgcc.a(_udivdi3.o)

.note.GNU-stack
                0x00000000        0x0
 .note.GNU-stack
                0x00000000        0x0 arch/arm/cpu/hi3716mv310/lowlevel_init.o
 .note.GNU-stack
                0x00000000        0x0 arch/arm/cpu/hi3716mv310/chip.o
 .note.GNU-stack
                0x00000000        0x0 arch/arm/cpu/hi3716mv310/ddrphy_training.o
 .note.GNU-stack
                0x00000000        0x0 arch/arm/cpu/hi3716mv310/ddr_dataeye_training.o
 .note.GNU-stack
                0x00000000        0x0 arch/arm/cpu/hi3716mv310/libhi3716mv310.a(hi3716mv310_ddr_training.o)
 .note.GNU-stack
                0x00000000        0x0 arch/arm/lib/libarm.a(board.o)
 .note.GNU-stack
                0x00000000        0x0 arch/arm/lib/libarm.a(interrupts.o)
 .note.GNU-stack
                0x00000000        0x0 arch/arm/lib/libarm.a(ddr_layout.o)
 .note.GNU-stack
                0x00000000        0x0 arch/arm/lib/libarm.a(ddr_size.o)
 .note.GNU-stack
                0x00000000        0x0 arch/arm/lib/libarm.a(cpu_info.o)
 .note.GNU-stack
                0x00000000        0x0 net/libnet.a(eth.o)
 .note.GNU-stack
                0x00000000        0x0 net/libnet.a(net.o)
 .note.GNU-stack
                0x00000000        0x0 net/libnet.a(rarp.o)
 .note.GNU-stack
                0x00000000        0x0 net/libnet.a(tftp.o)
 .note.GNU-stack
                0x00000000        0x0 net/libnet.a(bootp.o)
 .note.GNU-stack
                0x00000000        0x0 drivers/mtd/nand/libnand.a(nand.o)
 .note.GNU-stack
                0x00000000        0x0 drivers/mtd/nand/libnand.a(hinfc_init.o)
 .note.GNU-stack
                0x00000000        0x0 drivers/mtd/nand/libnand.a(nand_base.o)
 .note.GNU-stack
                0x00000000        0x0 drivers/mtd/nand/libnand.a(nand_bbt.o)
 .note.GNU-stack
                0x00000000        0x0 drivers/mtd/nand/libnand.a(nand_ecc.o)
 .note.GNU-stack
                0x00000000        0x0 drivers/mtd/nand/libnand.a(nand_ids.o)
 .note.GNU-stack
                0x00000000        0x0 drivers/mtd/nand/libnand.a(hinfc610.o)
 .note.GNU-stack
                0x00000000        0x0 drivers/mtd/nand/libnand.a(hinfc610_gen.o)
 .note.GNU-stack
                0x00000000        0x0 drivers/mtd/nand/libnand.a(hinfc610_read_retry.o)
 .note.GNU-stack
                0x00000000        0x0 drivers/mtd/nand/libnand.a(hinfc610_ecc_info.o)
 .note.GNU-stack
                0x00000000        0x0 drivers/mtd/nand/libnand.a(hinfc610_sync.o)
 .note.GNU-stack
                0x00000000        0x0 drivers/mtd/nand/libnand.a(hinfc620_gen.o)
 .note.GNU-stack
                0x00000000        0x0 drivers/mtd/nand/libnand.a(hinfc610_sync_onfi_23.o)
 .note.GNU-stack
                0x00000000        0x0 drivers/mtd/nand/libnand.a(hinfc610_sync_toggle.o)
 .note.GNU-stack
                0x00000000        0x0 drivers/mtd/nand/libnand.a(hinfc610_rw_latch.o)
 .note.GNU-stack
                0x00000000        0x0 drivers/mtd/nand/libnand.a(hinfc610_rw_latch_hi3716mv310.o)
 .note.GNU-stack
                0x00000000        0x0 drivers/mtd/nand/libnand.a(hinfc_gen.o)
 .note.GNU-stack
                0x00000000        0x0 drivers/mtd/nand/libnand.a(nand_spl_ids.o)
 .note.GNU-stack
                0x00000000        0x0 drivers/mtd/nand/libnand.a(hinfc610_read_retry_hynix_bg_cdie.o)
 .note.GNU-stack
                0x00000000        0x0 drivers/mtd/nand/libnand.a(hinfc610_read_retry_hynix_bg_bdie.o)
 .note.GNU-stack
                0x00000000        0x0 drivers/mtd/nand/libnand.a(hinfc610_read_retry_hynix_cg_adie.o)
 .note.GNU-stack
                0x00000000        0x0 drivers/mtd/nand/libnand.a(hinfc610_read_retry_micron.o)
 .note.GNU-stack
                0x00000000        0x0 drivers/mtd/nand/libnand.a(hinfc610_read_retry_samsung.o)
 .note.GNU-stack
                0x00000000        0x0 drivers/mtd/nand/libnand.a(hinfc610_read_retry_toshiba_24nm.o)
 .note.GNU-stack
                0x00000000        0x0 drivers/mtd/nand/libnand.a(hinfc610_read_retry_toshiba_19nm.o)
 .note.GNU-stack
                0x00000000        0x0 drivers/serial/libserial.a(serial_pl01x.o)
 .note.GNU-stack
                0x00000000        0x0 common/libcommon.a(bootstrap.o)
 .note.GNU-stack
                0x00000000        0x0 common/libcommon.a(cmd_boot.o)
 .note.GNU-stack
                0x00000000        0x0 common/libcommon.a(cmd_bootm.o)
 .note.GNU-stack
                0x00000000        0x0 common/libcommon.a(cmd_ddr_training.o)
 .note.GNU-stack
                0x00000000        0x0 common/libcommon.a(cmd_getinfo.o)
 .note.GNU-stack
                0x00000000        0x0 common/libcommon.a(cmd_help.o)
 .note.GNU-stack
                0x00000000        0x0 common/libcommon.a(cmd_load.o)
 .note.GNU-stack
                0x00000000        0x0 common/libcommon.a(cmd_mem.o)
 .note.GNU-stack
                0x00000000        0x0 common/libcommon.a(cmd_mii.o)
 .note.GNU-stack
                0x00000000        0x0 common/libcommon.a(cmd_nand.o)
 .note.GNU-stack
                0x00000000        0x0 common/libcommon.a(cmd_net.o)
 .note.GNU-stack
                0x00000000        0x0 common/libcommon.a(cmd_nvedit.o)
 .note.GNU-stack
                0x00000000        0x0 common/libcommon.a(cmd_version.o)
 .note.GNU-stack
                0x00000000        0x0 common/libcommon.a(command.o)
 .note.GNU-stack
                0x00000000        0x0 common/libcommon.a(console.o)
 .note.GNU-stack
                0x00000000        0x0 common/libcommon.a(dlmalloc.o)
 .note.GNU-stack
                0x00000000        0x0 common/libcommon.a(env_common.o)
 .note.GNU-stack
                0x00000000        0x0 common/libcommon.a(env_common_func.o)
 .note.GNU-stack
                0x00000000        0x0 common/libcommon.a(env_nand.o)
 .note.GNU-stack
                0x00000000        0x0 common/libcommon.a(exports.o)
 .note.GNU-stack
                0x00000000        0x0 common/libcommon.a(hi3716mv310_ddr_training_printf.o)
 .note.GNU-stack
                0x00000000        0x0 common/libcommon.a(image.o)
 .note.GNU-stack
                0x00000000        0x0 common/libcommon.a(main.o)
 .note.GNU-stack
                0x00000000        0x0 common/libcommon.a(miiphyutil.o)
 .note.GNU-stack
                0x00000000        0x0 common/libcommon.a(nand_logif.o)
 .note.GNU-stack
                0x00000000        0x0 common/libcommon.a(spiflash_logif.o)
 .note.GNU-stack
                0x00000000        0x0 common/libcommon.a(stdio.o)
 .note.GNU-stack
                0x00000000        0x0 common/libcommon.a(xyzModem.o)
 .note.GNU-stack
                0x00000000        0x0 /home/zyq/share/HI3716STD310/source/boot/product/libproduct.a(main.o)
 .note.GNU-stack
                0x00000000        0x0 /home/zyq/share/HI3716STD310/source/boot/product/libproduct.a(schedule.o)
 .note.GNU-stack
                0x00000000        0x0 /home/zyq/share/HI3716STD310/source/boot/product/libproduct.a(boot_debug.o)
 .note.GNU-stack
                0x00000000        0x0 /home/zyq/share/HI3716STD310/source/boot/product/libproduct.a(boot_mem.o)
 .note.GNU-stack
                0x00000000        0x0 /home/zyq/share/HI3716STD310/source/boot/product/libproduct.a(common_str.o)
 .note.GNU-stack
                0x00000000        0x0 /home/zyq/share/HI3716STD310/source/boot/product/libproduct.a(drv_osal.o)
 .note.GNU-stack
                0x00000000        0x0 /home/zyq/share/HI3716STD310/source/boot/product/libproduct.a(hi_adp_flash.o)
 .note.GNU-stack
                0x00000000        0x0 /home/zyq/share/HI3716STD310/source/boot/product/libproduct.a(hi_go_bliter.o)
 .note.GNU-stack
                0x00000000        0x0 /home/zyq/share/HI3716STD310/source/boot/product/libproduct.a(hi_go_comm.o)
 .note.GNU-stack
                0x00000000        0x0 /home/zyq/share/HI3716STD310/source/boot/product/libproduct.a(hi_go_decoder.o)
 .note.GNU-stack
                0x00000000        0x0 /home/zyq/share/HI3716STD310/source/boot/product/libproduct.a(hi_go_gdev.o)
 .note.GNU-stack
                0x00000000        0x0 /home/zyq/share/HI3716STD310/source/boot/product/libproduct.a(higo_memsurface.o)
 .note.GNU-stack
                0x00000000        0x0 /home/zyq/share/HI3716STD310/source/boot/product/libproduct.a(hi_go_surface.o)
 .note.GNU-stack
                0x00000000        0x0 /home/zyq/share/HI3716STD310/source/boot/product/libproduct.a(higo_surface.o)
 .note.GNU-stack
                0x00000000        0x0 /home/zyq/share/HI3716STD310/source/boot/product/libproduct.a(adp_jpeg.o)
 .note.GNU-stack
                0x00000000        0x0 /home/zyq/share/HI3716STD310/source/boot/product/libproduct.a(jpg_decctrl.o)
 .note.GNU-stack
                0x00000000        0x0 /home/zyq/share/HI3716STD310/source/boot/product/libproduct.a(jpg_handle.o)
 .note.GNU-stack
                0x00000000        0x0 /home/zyq/share/HI3716STD310/source/boot/product/libproduct.a(jpg_hdec.o)
 .note.GNU-stack
                0x00000000        0x0 /home/zyq/share/HI3716STD310/source/boot/product/libproduct.a(jpg_parse.o)
 .note.GNU-stack
                0x00000000        0x0 /home/zyq/share/HI3716STD310/source/boot/product/libproduct.a(drv_i2c.o)
 .note.GNU-stack
                0x00000000        0x0 /home/zyq/share/HI3716STD310/source/boot/product/libproduct.a(drv_gpio.o)
 .note.GNU-stack
                0x00000000        0x0 /home/zyq/share/HI3716STD310/source/boot/product/libproduct.a(boot_pdm.o)
 .note.GNU-stack
                0x00000000        0x0 /home/zyq/share/HI3716STD310/source/boot/product/libproduct.a(hdmi.o)
 .note.GNU-stack
                0x00000000        0x0 /home/zyq/share/HI3716STD310/source/boot/product/libproduct.a(txvidp.o)
 .note.GNU-stack
                0x00000000        0x0 /home/zyq/share/HI3716STD310/source/boot/product/libproduct.a(infofrm.o)
 .note.GNU-stack
                0x00000000        0x0 /home/zyq/share/HI3716STD310/source/boot/product/libproduct.a(hdmitx.o)
 .note.GNU-stack
                0x00000000        0x0 /home/zyq/share/HI3716STD310/source/boot/product/libproduct.a(drv_hlviic.o)
 .note.GNU-stack
                0x00000000        0x0 /home/zyq/share/HI3716STD310/source/boot/product/libproduct.a(txvptbl.o)
 .note.GNU-stack
                0x00000000        0x0 /home/zyq/share/HI3716STD310/source/boot/product/libproduct.a(phy.o)
 .note.GNU-stack
                0x00000000        0x0 /home/zyq/share/HI3716STD310/source/boot/product/libproduct.a(de.o)
 .note.GNU-stack
                0x00000000        0x0 /home/zyq/share/HI3716STD310/source/boot/product/libproduct.a(hi_keyled_inner.o)
 .note.GNU-stack
                0x00000000        0x0 /home/zyq/share/HI3716STD310/source/boot/product/libproduct.a(cmd_otp.o)
 .note.GNU-stack
                0x00000000        0x0 /home/zyq/share/HI3716STD310/source/boot/product/libproduct.a(otp.o)
 .note.GNU-stack
                0x00000000        0x0 /home/zyq/share/HI3716STD310/source/boot/product/libproduct.a(unf_otp.o)
 .note.GNU-stack
                0x00000000        0x0 /home/zyq/share/HI3716STD310/source/boot/product/libproduct.a(boot_logo.o)
 .note.GNU-stack
                0x00000000        0x0 /home/zyq/share/HI3716STD310/source/boot/product/libproduct.a(boot_adp.o)
 .note.GNU-stack
                0x00000000        0x0 /home/zyq/share/HI3716STD310/source/boot/product/libproduct.a(common_api.o)
 .note.GNU-stack
                0x00000000        0x0 /home/zyq/share/HI3716STD310/source/boot/product/libproduct.a(drv_reg_common.o)
 .note.GNU-stack
                0x00000000        0x0 /home/zyq/share/HI3716STD310/source/boot/product/libproduct.a(drv_grc_adpt.o)
 .note.GNU-stack
                0x00000000        0x0 /home/zyq/share/HI3716STD310/source/boot/product/libproduct.a(optm_hifb.o)
 .note.GNU-stack
                0x00000000        0x0 /home/zyq/share/HI3716STD310/source/boot/product/libproduct.a(optm_m_disp.o)
 .note.GNU-stack
                0x00000000        0x0 /home/zyq/share/HI3716STD310/source/boot/product/libproduct.a(vo_wrap.o)
 .note.GNU-stack
                0x00000000        0x0 /home/zyq/share/HI3716STD310/source/boot/product/libproduct.a(optm_alg_api.o)
 .note.GNU-stack
                0x00000000        0x0 /home/zyq/share/HI3716STD310/source/boot/product/libproduct.a(optm_alg.o)
 .note.GNU-stack
                0x00000000        0x0 /home/zyq/share/HI3716STD310/source/boot/product/libproduct.a(adp_gfx.o)
 .note.GNU-stack
                0x00000000        0x0 /home/zyq/share/HI3716STD310/source/boot/product/libproduct.a(adp_layer.o)
 .note.GNU-stack
                0x00000000        0x0 /home/zyq/share/HI3716STD310/source/boot/product/libproduct.a(hi_api_mmz.o)
 .note.GNU-stack
                0x00000000        0x0 /home/zyq/share/HI3716STD310/source/boot/product/libproduct.a(higo_blit.o)
 .note.GNU-stack
                0x00000000        0x0 /home/zyq/share/HI3716STD310/source/boot/product/libproduct.a(higo_io.o)
 .note.GNU-stack
                0x00000000        0x0 /home/zyq/share/HI3716STD310/source/boot/product/libproduct.a(higo_memory.o)
 .note.GNU-stack
                0x00000000        0x0 /home/zyq/share/HI3716STD310/source/boot/product/libproduct.a(hi_api_tde.o)
 .note.GNU-stack
                0x00000000        0x0 /home/zyq/share/HI3716STD310/source/boot/product/libproduct.a(tde_osictl.o)
 .note.GNU-stack
                0x00000000        0x0 /home/zyq/share/HI3716STD310/source/boot/product/libproduct.a(tde_osilist.o)
 .note.GNU-stack
                0x00000000        0x0 /home/zyq/share/HI3716STD310/source/boot/product/libproduct.a(tde_osr.o)
 .note.GNU-stack
                0x00000000        0x0 /home/zyq/share/HI3716STD310/source/boot/product/libproduct.a(wmalloc.o)
 .note.GNU-stack
                0x00000000        0x0 /home/zyq/share/HI3716STD310/source/boot/product/libproduct.a(jpg_buf.o)
 .note.GNU-stack
                0x00000000        0x0 /home/zyq/share/HI3716STD310/source/boot/product/libproduct.a(jpg_drvapi.o)
 .note.GNU-stack
                0x00000000        0x0 /home/zyq/share/HI3716STD310/source/boot/product/libproduct.a(vmtables.o)
 .note.GNU-stack
                0x00000000        0x0 /home/zyq/share/HI3716STD310/source/boot/product/libproduct.a(optm_disp_rwzb.o)
 .note.GNU-stack
                0x00000000        0x0 /home/zyq/share/HI3716STD310/source/boot/product/libproduct.a(optm_hal.o)
 .note.GNU-stack
                0x00000000        0x0 /home/zyq/share/HI3716STD310/source/boot/product/libproduct.a(tde_hal.o)
 .note.GNU-stack
                0x00000000        0x0 board/hi3716mv310/libhi3716mv310.a(board.o)
 .note.GNU-stack
                0x00000000        0x0 board/hi3716mv310/libhi3716mv310.a(eth_cfg_setup.o)
 .note.GNU-stack
                0x00000000        0x0 lib/libgeneric.a(crc16.o)
 .note.GNU-stack
                0x00000000        0x0 lib/libgeneric.a(crc32.o)
 .note.GNU-stack
                0x00000000        0x0 lib/libgeneric.a(ctype.o)
 .note.GNU-stack
                0x00000000        0x0 lib/libgeneric.a(display_options.o)
 .note.GNU-stack
                0x00000000        0x0 lib/libgeneric.a(div64.o)
 .note.GNU-stack
                0x00000000        0x0 lib/libgeneric.a(net_utils.o)
 .note.GNU-stack
                0x00000000        0x0 lib/libgeneric.a(string.o)
 .note.GNU-stack
                0x00000000        0x0 lib/libgeneric.a(time.o)
 .note.GNU-stack
                0x00000000        0x0 lib/libgeneric.a(vsprintf.o)
 .note.GNU-stack
                0x00000000        0x0 lib/libgeneric.a(vsnprintf.o)
 .note.GNU-stack
                0x00000000        0x0 lib/libgeneric.a(reserve_mem.o)
 .note.GNU-stack
                0x00000000        0x0 lib/libgeneric.a(parse_bootargs.o)
 .note.GNU-stack
                0x00000000        0x0 lib/libgeneric.a(match_table.o)
 .note.GNU-stack
                0x00000000        0x0 lib/libgeneric.a(bootimg.o)
 .note.GNU-stack
                0x00000000        0x0 arch/arm/cpu/hi3716mv310/libhi3716mv310.a(cpu.o)
 .note.GNU-stack
                0x00000000        0x0 arch/arm/cpu/hi3716mv310/libhi3716mv310.a(timer.o)
 .note.GNU-stack
                0x00000000        0x0 arch/arm/lib/libarm.a(bootm.o)
 .note.GNU-stack
                0x00000000        0x0 arch/arm/lib/libarm.a(tags.o)
 .note.GNU-stack
                0x00000000        0x0 arch/arm/lib/libarm.a(cache.o)
 .note.GNU-stack
                0x00000000        0x0 arch/arm/lib/libarm.a(cache-cp15.o)
 .note.GNU-stack
                0x00000000        0x0 arch/arm/lib/libarm.a(reset.o)
 .note.GNU-stack
                0x00000000        0x0 arch/arm/lib/libarm.a(process.o)
 .note.GNU-stack
                0x00000000        0x0 drivers/mtd/nand/libnand.a(hinfc_yaffs.o)
 .note.GNU-stack
                0x00000000        0x0 drivers/mtd/nand/libnand.a(nand_util.o)
 .note.GNU-stack
                0x00000000        0x0 drivers/mtd/spi/libspi_flash.a(spi_compatible.o)
 .note.GNU-stack
                0x00000000        0x0 drivers/net/hisfv300/libhisfv300.a(net-drv.o)
 .note.GNU-stack
                0x00000000        0x0 drivers/net/hisfv300/libhisfv300.a(mii-drv.o)
 .note.GNU-stack
                0x00000000        0x0 drivers/net/hisfv300/libhisfv300.a(ctrl.o)
 .note.GNU-stack
                0x00000000        0x0 drivers/net/hisfv300/libhisfv300.a(glb.o)
 .note.GNU-stack
                0x00000000        0x0 drivers/net/hisfv300/libhisfv300.a(mac.o)
 .note.GNU-stack
                0x00000000        0x0 drivers/net/hisfv300/libhisfv300.a(mdio.o)
 .note.GNU-stack
                0x00000000        0x0 drivers/net/hisfv300/libhisfv300.a(sys.o)
 .note.GNU-stack
                0x00000000        0x0 drivers/net/hisfv300/libhisfv300.a(phy_fix.o)
 .note.GNU-stack
                0x00000000        0x0 common/libcommon.a(flash_part.o)
 .note.GNU-stack
                0x00000000        0x0 /home/zyq/share/HI3716STD310/source/boot/fastboot/arch/arm/lib/eabi_compat.o
 .note.GNU-stack
                0x00000000        0x0 /opt/hisi-linux/x86-arm/arm-hisiv200-linux/bin/../lib/gcc/arm-hisiv200-linux-gnueabi/4.4.1/libgcc.a(_udivsi3.o)
 .note.GNU-stack
                0x00000000        0x0 /opt/hisi-linux/x86-arm/arm-hisiv200-linux/bin/../lib/gcc/arm-hisiv200-linux-gnueabi/4.4.1/libgcc.a(_divsi3.o)
 .note.GNU-stack
                0x00000000        0x0 /opt/hisi-linux/x86-arm/arm-hisiv200-linux/bin/../lib/gcc/arm-hisiv200-linux-gnueabi/4.4.1/libgcc.a(_lshrdi3.o)
 .note.GNU-stack
                0x00000000        0x0 /opt/hisi-linux/x86-arm/arm-hisiv200-linux/bin/../lib/gcc/arm-hisiv200-linux-gnueabi/4.4.1/libgcc.a(_ashrdi3.o)
 .note.GNU-stack
                0x00000000        0x0 /opt/hisi-linux/x86-arm/arm-hisiv200-linux/bin/../lib/gcc/arm-hisiv200-linux-gnueabi/4.4.1/libgcc.a(_ashldi3.o)
 .note.GNU-stack
                0x00000000        0x0 /opt/hisi-linux/x86-arm/arm-hisiv200-linux/bin/../lib/gcc/arm-hisiv200-linux-gnueabi/4.4.1/libgcc.a(_aeabi_uldivmod.o)
 .note.GNU-stack
                0x00000000        0x0 /opt/hisi-linux/x86-arm/arm-hisiv200-linux/bin/../lib/gcc/arm-hisiv200-linux-gnueabi/4.4.1/libgcc.a(_dvmd_lnx.o)
 .note.GNU-stack
                0x00000000        0x0 /opt/hisi-linux/x86-arm/arm-hisiv200-linux/bin/../lib/gcc/arm-hisiv200-linux-gnueabi/4.4.1/libgcc.a(bpabi.o)
 .note.GNU-stack
                0x00000000        0x0 /opt/hisi-linux/x86-arm/arm-hisiv200-linux/bin/../lib/gcc/arm-hisiv200-linux-gnueabi/4.4.1/libgcc.a(_divdi3.o)
 .note.GNU-stack
                0x00000000        0x0 /opt/hisi-linux/x86-arm/arm-hisiv200-linux/bin/../lib/gcc/arm-hisiv200-linux-gnueabi/4.4.1/libgcc.a(_udivdi3.o)

.debug_line     0x00000000    0x1c27c
 .debug_line    0x00000000      0x1c0 arch/arm/cpu/hi3716mv310/start.o
 .debug_line    0x000001c0       0xb9 arch/arm/cpu/hi3716mv310/lowlevel_init.o
 .debug_line    0x00000279       0x57 arch/arm/cpu/hi3716mv310/chip.o
 .debug_line    0x000002d0      0x12f arch/arm/cpu/hi3716mv310/ddrphy_train.o
 .debug_line    0x000003ff      0x12a arch/arm/cpu/hi3716mv310/ddrphy_training.o
 .debug_line    0x00000529      0x247 arch/arm/cpu/hi3716mv310/ddr_dataeye_training.o
 .debug_line    0x00000770       0x7e arch/arm/cpu/hi3716mv310/irq.o
 .debug_line    0x000007ee       0x71 arch/arm/cpu/hi3716mv310/uart.o
 .debug_line    0x0000085f       0x58 arch/arm/cpu/hi3716mv310/libhi3716mv310.a(ddrphy_training_print.o)
 .debug_line    0x000008b7       0x5f arch/arm/cpu/hi3716mv310/libhi3716mv310.a(hi3716mv310_ddr_training.o)
 .debug_line    0x00000916      0x1d1 arch/arm/lib/libarm.a(board.o)
 .debug_line    0x00000ae7       0xe5 arch/arm/lib/libarm.a(interrupts.o)
 .debug_line    0x00000bcc       0x7b arch/arm/lib/libarm.a(ddr_layout.o)
 .debug_line    0x00000c47       0x58 arch/arm/lib/libarm.a(ddr_size.o)
 .debug_line    0x00000c9f       0xde arch/arm/lib/libarm.a(cpu_info.o)
 .debug_line    0x00000d7d      0x23e net/libnet.a(eth.o)
 .debug_line    0x00000fbb      0x4dd net/libnet.a(net.o)
 .debug_line    0x00001498      0x10d net/libnet.a(rarp.o)
 .debug_line    0x000015a5      0x308 net/libnet.a(tftp.o)
 .debug_line    0x000018ad      0x29e net/libnet.a(bootp.o)
 .debug_line    0x00001b4b      0x1c1 drivers/mtd/nand/libnand.a(nand.o)
 .debug_line    0x00001d0c      0x174 drivers/mtd/nand/libnand.a(hinfc_init.o)
 .debug_line    0x00001e80      0xa21 drivers/mtd/nand/libnand.a(nand_base.o)
 .debug_line    0x000028a1      0x458 drivers/mtd/nand/libnand.a(nand_bbt.o)
 .debug_line    0x00002cf9      0x19e drivers/mtd/nand/libnand.a(nand_ecc.o)
 .debug_line    0x00002e97       0x79 drivers/mtd/nand/libnand.a(nand_ids.o)
 .debug_line    0x00002f10      0x665 drivers/mtd/nand/libnand.a(hinfc610.o)
 .debug_line    0x00003575       0xb5 drivers/mtd/nand/libnand.a(hinfc610_gen.o)
 .debug_line    0x0000362a      0x1b5 drivers/mtd/nand/libnand.a(hinfc610_read_retry.o)
 .debug_line    0x000037df      0x219 drivers/mtd/nand/libnand.a(hinfc610_ecc_info.o)
 .debug_line    0x000039f8      0x207 drivers/mtd/nand/libnand.a(hinfc610_sync.o)
 .debug_line    0x00003bff       0xb5 drivers/mtd/nand/libnand.a(hinfc620_gen.o)
 .debug_line    0x00003cb4      0x1ee drivers/mtd/nand/libnand.a(hinfc610_sync_onfi_23.o)
 .debug_line    0x00003ea2      0x1eb drivers/mtd/nand/libnand.a(hinfc610_sync_toggle.o)
 .debug_line    0x0000408d       0x63 drivers/mtd/nand/libnand.a(hinfc610_rw_latch.o)
 .debug_line    0x000040f0       0x57 drivers/mtd/nand/libnand.a(hinfc610_rw_latch_hi3716mv310.o)
 .debug_line    0x00004147      0x1ba drivers/mtd/nand/libnand.a(hinfc_gen.o)
 .debug_line    0x00004301      0x226 drivers/mtd/nand/libnand.a(nand_spl_ids.o)
 .debug_line    0x00004527      0x285 drivers/mtd/nand/libnand.a(hinfc610_read_retry_hynix_bg_cdie.o)
 .debug_line    0x000047ac      0x205 drivers/mtd/nand/libnand.a(hinfc610_read_retry_hynix_bg_bdie.o)
 .debug_line    0x000049b1      0x283 drivers/mtd/nand/libnand.a(hinfc610_read_retry_hynix_cg_adie.o)
 .debug_line    0x00004c34      0x1d2 drivers/mtd/nand/libnand.a(hinfc610_read_retry_micron.o)
 .debug_line    0x00004e06      0x1f9 drivers/mtd/nand/libnand.a(hinfc610_read_retry_samsung.o)
 .debug_line    0x00004fff      0x21a drivers/mtd/nand/libnand.a(hinfc610_read_retry_toshiba_24nm.o)
 .debug_line    0x00005219      0x239 drivers/mtd/nand/libnand.a(hinfc610_read_retry_toshiba_19nm.o)
 .debug_line    0x00005452       0x88 drivers/serial/libserial.a(serial_pl01x.o)
 .debug_line    0x000054da      0x1bf common/libcommon.a(bootstrap.o)
 .debug_line    0x00005699       0xdd common/libcommon.a(cmd_boot.o)
 .debug_line    0x00005776      0x37a common/libcommon.a(cmd_bootm.o)
 .debug_line    0x00005af0      0x152 common/libcommon.a(cmd_ddr_training.o)
 .debug_line    0x00005c42      0x1a2 common/libcommon.a(cmd_getinfo.o)
 .debug_line    0x00005de4       0x85 common/libcommon.a(cmd_help.o)
 .debug_line    0x00005e69      0x32a common/libcommon.a(cmd_load.o)
 .debug_line    0x00006193      0x250 common/libcommon.a(cmd_mem.o)
 .debug_line    0x000063e3      0x1db common/libcommon.a(cmd_mii.o)
 .debug_line    0x000065be      0x49b common/libcommon.a(cmd_nand.o)
 .debug_line    0x00006a59      0x160 common/libcommon.a(cmd_net.o)
 .debug_line    0x00006bb9      0x2b8 common/libcommon.a(cmd_nvedit.o)
 .debug_line    0x00006e71       0x86 common/libcommon.a(cmd_version.o)
 .debug_line    0x00006ef7      0x1d1 common/libcommon.a(command.o)
 .debug_line    0x000070c8      0x2a9 common/libcommon.a(console.o)
 .debug_line    0x00007371      0x36c common/libcommon.a(dlmalloc.o)
 .debug_line    0x000076dd      0x1ae common/libcommon.a(env_common.o)
 .debug_line    0x0000788b      0x151 common/libcommon.a(env_common_func.o)
 .debug_line    0x000079dc      0x23e common/libcommon.a(env_nand.o)
 .debug_line    0x00007c1a      0x16b common/libcommon.a(exports.o)
 .debug_line    0x00007d85       0xee common/libcommon.a(hi3716mv310_ddr_training_printf.o)
 .debug_line    0x00007e73      0x380 common/libcommon.a(image.o)
 .debug_line    0x000081f3      0x387 common/libcommon.a(main.o)
 .debug_line    0x0000857a      0x1dc common/libcommon.a(miiphyutil.o)
 .debug_line    0x00008756      0x3ef common/libcommon.a(nand_logif.o)
 .debug_line    0x00008b45      0x229 common/libcommon.a(spiflash_logif.o)
 .debug_line    0x00008d6e      0x1a6 common/libcommon.a(stdio.o)
 .debug_line    0x00008f14      0x2ac common/libcommon.a(xyzModem.o)
 .debug_line    0x000091c0      0x280 /home/zyq/share/HI3716STD310/source/boot/product/libproduct.a(main.o)
 .debug_line    0x00009440      0x50d /home/zyq/share/HI3716STD310/source/boot/product/libproduct.a(schedule.o)
 .debug_line    0x0000994d      0x1b3 /home/zyq/share/HI3716STD310/source/boot/product/libproduct.a(boot_debug.o)
 .debug_line    0x00009b00       0xbe /home/zyq/share/HI3716STD310/source/boot/product/libproduct.a(boot_mem.o)
 .debug_line    0x00009bbe       0xd2 /home/zyq/share/HI3716STD310/source/boot/product/libproduct.a(common_str.o)
 .debug_line    0x00009c90      0x12a /home/zyq/share/HI3716STD310/source/boot/product/libproduct.a(drv_osal.o)
 .debug_line    0x00009dba      0x43b /home/zyq/share/HI3716STD310/source/boot/product/libproduct.a(hi_adp_flash.o)
 .debug_line    0x0000a1f5      0x171 /home/zyq/share/HI3716STD310/source/boot/product/libproduct.a(hi_go_bliter.o)
 .debug_line    0x0000a366       0xfe /home/zyq/share/HI3716STD310/source/boot/product/libproduct.a(hi_go_comm.o)
 .debug_line    0x0000a464      0x2ab /home/zyq/share/HI3716STD310/source/boot/product/libproduct.a(hi_go_decoder.o)
 .debug_line    0x0000a70f      0x371 /home/zyq/share/HI3716STD310/source/boot/product/libproduct.a(hi_go_gdev.o)
 .debug_line    0x0000aa80      0x1bb /home/zyq/share/HI3716STD310/source/boot/product/libproduct.a(higo_memsurface.o)
 .debug_line    0x0000ac3b      0x12f /home/zyq/share/HI3716STD310/source/boot/product/libproduct.a(hi_go_surface.o)
 .debug_line    0x0000ad6a      0x1f6 /home/zyq/share/HI3716STD310/source/boot/product/libproduct.a(higo_surface.o)
 .debug_line    0x0000af60      0x2f1 /home/zyq/share/HI3716STD310/source/boot/product/libproduct.a(adp_jpeg.o)
 .debug_line    0x0000b251      0x585 /home/zyq/share/HI3716STD310/source/boot/product/libproduct.a(jpg_decctrl.o)
 .debug_line    0x0000b7d6      0x145 /home/zyq/share/HI3716STD310/source/boot/product/libproduct.a(jpg_handle.o)
 .debug_line    0x0000b91b      0x581 /home/zyq/share/HI3716STD310/source/boot/product/libproduct.a(jpg_hdec.o)
 .debug_line    0x0000be9c      0x65b /home/zyq/share/HI3716STD310/source/boot/product/libproduct.a(jpg_parse.o)
 .debug_line    0x0000c4f7      0x390 /home/zyq/share/HI3716STD310/source/boot/product/libproduct.a(drv_i2c.o)
 .debug_line    0x0000c887      0x19f /home/zyq/share/HI3716STD310/source/boot/product/libproduct.a(drv_gpio.o)
 .debug_line    0x0000ca26      0x552 /home/zyq/share/HI3716STD310/source/boot/product/libproduct.a(boot_pdm.o)
 .debug_line    0x0000cf78      0x2be /home/zyq/share/HI3716STD310/source/boot/product/libproduct.a(hdmi.o)
 .debug_line    0x0000d236      0x17d /home/zyq/share/HI3716STD310/source/boot/product/libproduct.a(txvidp.o)
 .debug_line    0x0000d3b3      0x155 /home/zyq/share/HI3716STD310/source/boot/product/libproduct.a(infofrm.o)
 .debug_line    0x0000d508      0x163 /home/zyq/share/HI3716STD310/source/boot/product/libproduct.a(hdmitx.o)
 .debug_line    0x0000d66b       0xba /home/zyq/share/HI3716STD310/source/boot/product/libproduct.a(drv_hlviic.o)
 .debug_line    0x0000d725       0x77 /home/zyq/share/HI3716STD310/source/boot/product/libproduct.a(txvptbl.o)
 .debug_line    0x0000d79c      0x1c2 /home/zyq/share/HI3716STD310/source/boot/product/libproduct.a(phy.o)
 .debug_line    0x0000d95e       0xba /home/zyq/share/HI3716STD310/source/boot/product/libproduct.a(de.o)
 .debug_line    0x0000da18      0x212 /home/zyq/share/HI3716STD310/source/boot/product/libproduct.a(hi_keyled_inner.o)
 .debug_line    0x0000dc2a      0x152 /home/zyq/share/HI3716STD310/source/boot/product/libproduct.a(cmd_otp.o)
 .debug_line    0x0000dd7c      0x28b /home/zyq/share/HI3716STD310/source/boot/product/libproduct.a(otp.o)
 .debug_line    0x0000e007      0x194 /home/zyq/share/HI3716STD310/source/boot/product/libproduct.a(unf_otp.o)
 .debug_line    0x0000e19b       0xcc /home/zyq/share/HI3716STD310/source/boot/product/libproduct.a(boot_logo.o)
 .debug_line    0x0000e267      0x19d /home/zyq/share/HI3716STD310/source/boot/product/libproduct.a(boot_adp.o)
 .debug_line    0x0000e404      0x165 /home/zyq/share/HI3716STD310/source/boot/product/libproduct.a(common_api.o)
 .debug_line    0x0000e569      0x112 /home/zyq/share/HI3716STD310/source/boot/product/libproduct.a(drv_reg_common.o)
 .debug_line    0x0000e67b      0x217 /home/zyq/share/HI3716STD310/source/boot/product/libproduct.a(drv_grc_adpt.o)
 .debug_line    0x0000e892      0x83d /home/zyq/share/HI3716STD310/source/boot/product/libproduct.a(optm_hifb.o)
 .debug_line    0x0000f0cf      0xffe /home/zyq/share/HI3716STD310/source/boot/product/libproduct.a(optm_m_disp.o)
 .debug_line    0x000100cd      0x34d /home/zyq/share/HI3716STD310/source/boot/product/libproduct.a(vo_wrap.o)
 .debug_line    0x0001041a     0x13cd /home/zyq/share/HI3716STD310/source/boot/product/libproduct.a(optm_alg_api.o)
 .debug_line    0x000117e7      0xcd4 /home/zyq/share/HI3716STD310/source/boot/product/libproduct.a(optm_alg.o)
 .debug_line    0x000124bb      0x4e8 /home/zyq/share/HI3716STD310/source/boot/product/libproduct.a(adp_gfx.o)
 .debug_line    0x000129a3      0x191 /home/zyq/share/HI3716STD310/source/boot/product/libproduct.a(adp_layer.o)
 .debug_line    0x00012b34       0xa3 /home/zyq/share/HI3716STD310/source/boot/product/libproduct.a(hi_api_mmz.o)
 .debug_line    0x00012bd7      0x12a /home/zyq/share/HI3716STD310/source/boot/product/libproduct.a(higo_blit.o)
 .debug_line    0x00012d01      0x1c2 /home/zyq/share/HI3716STD310/source/boot/product/libproduct.a(higo_io.o)
 .debug_line    0x00012ec3      0x156 /home/zyq/share/HI3716STD310/source/boot/product/libproduct.a(higo_memory.o)
 .debug_line    0x00013019      0x10e /home/zyq/share/HI3716STD310/source/boot/product/libproduct.a(hi_api_tde.o)
 .debug_line    0x00013127     0x150c /home/zyq/share/HI3716STD310/source/boot/product/libproduct.a(tde_osictl.o)
 .debug_line    0x00014633      0x4b6 /home/zyq/share/HI3716STD310/source/boot/product/libproduct.a(tde_osilist.o)
 .debug_line    0x00014ae9       0x4b /home/zyq/share/HI3716STD310/source/boot/product/libproduct.a(tde_osr.o)
 .debug_line    0x00014b34      0x156 /home/zyq/share/HI3716STD310/source/boot/product/libproduct.a(wmalloc.o)
 .debug_line    0x00014c8a      0x1a0 /home/zyq/share/HI3716STD310/source/boot/product/libproduct.a(jpg_buf.o)
 .debug_line    0x00014e2a       0xcd /home/zyq/share/HI3716STD310/source/boot/product/libproduct.a(jpg_drvapi.o)
 .debug_line    0x00014ef7       0x94 /home/zyq/share/HI3716STD310/source/boot/product/libproduct.a(vmtables.o)
 .debug_line    0x00014f8b       0xb9 /home/zyq/share/HI3716STD310/source/boot/product/libproduct.a(optm_disp_rwzb.o)
 .debug_line    0x00015044     0x34c5 /home/zyq/share/HI3716STD310/source/boot/product/libproduct.a(optm_hal.o)
 .debug_line    0x00018509      0x7be /home/zyq/share/HI3716STD310/source/boot/product/libproduct.a(tde_hal.o)
 .debug_line    0x00018cc7      0x121 board/hi3716mv310/libhi3716mv310.a(board.o)
 .debug_line    0x00018de8      0x1f5 board/hi3716mv310/libhi3716mv310.a(eth_cfg_setup.o)
 .debug_line    0x00018fdd       0xd3 lib/libgeneric.a(crc16.o)
 .debug_line    0x000190b0      0x15e lib/libgeneric.a(crc32.o)
 .debug_line    0x0001920e       0x28 lib/libgeneric.a(ctype.o)
 .debug_line    0x00019236      0x149 lib/libgeneric.a(display_options.o)
 .debug_line    0x0001937f       0xe5 lib/libgeneric.a(div64.o)
 .debug_line    0x00019464      0x178 lib/libgeneric.a(net_utils.o)
 .debug_line    0x000195dc      0x1e0 lib/libgeneric.a(string.o)
 .debug_line    0x000197bc       0x8b lib/libgeneric.a(time.o)
 .debug_line    0x00019847      0x33c lib/libgeneric.a(vsprintf.o)
 .debug_line    0x00019b83      0x2cf lib/libgeneric.a(vsnprintf.o)
 .debug_line    0x00019e52      0x174 lib/libgeneric.a(reserve_mem.o)
 .debug_line    0x00019fc6      0x151 lib/libgeneric.a(parse_bootargs.o)
 .debug_line    0x0001a117       0xae lib/libgeneric.a(match_table.o)
 .debug_line    0x0001a1c5       0xfc lib/libgeneric.a(bootimg.o)
 .debug_line    0x0001a2c1       0xa1 arch/arm/cpu/hi3716mv310/libhi3716mv310.a(cpu.o)
 .debug_line    0x0001a362       0xe9 arch/arm/cpu/hi3716mv310/libhi3716mv310.a(timer.o)
 .debug_line    0x0001a44b       0x9c arch/arm/lib/libarm.a(mmu.o)
 .debug_line    0x0001a4e7      0x21d arch/arm/lib/libarm.a(bootm.o)
 .debug_line    0x0001a704       0x70 arch/arm/lib/libarm.a(tags.o)
 .debug_line    0x0001a774       0x38 arch/arm/lib/libarm.a(cache.o)
 .debug_line    0x0001a7ac       0xef arch/arm/lib/libarm.a(cache-cp15.o)
 .debug_line    0x0001a89b       0x85 arch/arm/lib/libarm.a(reset.o)
 .debug_line    0x0001a920       0x4b arch/arm/lib/libarm.a(process.o)
 .debug_line    0x0001a96b      0x147 drivers/mtd/nand/libnand.a(hinfc_yaffs.o)
 .debug_line    0x0001aab2      0x434 drivers/mtd/nand/libnand.a(nand_util.o)
 .debug_line    0x0001aee6      0x194 drivers/mtd/spi/libspi_flash.a(spi_compatible.o)
 .debug_line    0x0001b07a      0x2bf drivers/net/hisfv300/libhisfv300.a(net-drv.o)
 .debug_line    0x0001b339       0xc3 drivers/net/hisfv300/libhisfv300.a(mii-drv.o)
 .debug_line    0x0001b3fc       0x67 drivers/net/hisfv300/libhisfv300.a(ctrl.o)
 .debug_line    0x0001b463       0x6c drivers/net/hisfv300/libhisfv300.a(glb.o)
 .debug_line    0x0001b4cf       0x9e drivers/net/hisfv300/libhisfv300.a(mac.o)
 .debug_line    0x0001b56d       0x7a drivers/net/hisfv300/libhisfv300.a(mdio.o)
 .debug_line    0x0001b5e7      0x154 drivers/net/hisfv300/libhisfv300.a(sys.o)
 .debug_line    0x0001b73b      0x163 drivers/net/hisfv300/libhisfv300.a(phy_fix.o)
 .debug_line    0x0001b89e      0x1d8 common/libcommon.a(flash_part.o)
 .debug_line    0x0001ba76       0x45 /home/zyq/share/HI3716STD310/source/boot/fastboot/arch/arm/lib/eabi_compat.o
 .debug_line    0x0001babb       0x92 /opt/hisi-linux/x86-arm/arm-hisiv200-linux/bin/../lib/gcc/arm-hisiv200-linux-gnueabi/4.4.1/libgcc.a(_udivsi3.o)
 .debug_line    0x0001bb4d       0x9e /opt/hisi-linux/x86-arm/arm-hisiv200-linux/bin/../lib/gcc/arm-hisiv200-linux-gnueabi/4.4.1/libgcc.a(_divsi3.o)
 .debug_line    0x0001bbeb       0x75 /opt/hisi-linux/x86-arm/arm-hisiv200-linux/bin/../lib/gcc/arm-hisiv200-linux-gnueabi/4.4.1/libgcc.a(_lshrdi3.o)
 .debug_line    0x0001bc60       0x75 /opt/hisi-linux/x86-arm/arm-hisiv200-linux/bin/../lib/gcc/arm-hisiv200-linux-gnueabi/4.4.1/libgcc.a(_ashrdi3.o)
 .debug_line    0x0001bcd5       0x75 /opt/hisi-linux/x86-arm/arm-hisiv200-linux/bin/../lib/gcc/arm-hisiv200-linux-gnueabi/4.4.1/libgcc.a(_ashldi3.o)
 .debug_line    0x0001bd4a       0x72 /opt/hisi-linux/x86-arm/arm-hisiv200-linux/bin/../lib/gcc/arm-hisiv200-linux-gnueabi/4.4.1/libgcc.a(_aeabi_uldivmod.o)
 .debug_line    0x0001bdbc       0x75 /opt/hisi-linux/x86-arm/arm-hisiv200-linux/bin/../lib/gcc/arm-hisiv200-linux-gnueabi/4.4.1/libgcc.a(_dvmd_lnx.o)
 .debug_line    0x0001be31       0x75 /opt/hisi-linux/x86-arm/arm-hisiv200-linux/bin/../lib/gcc/arm-hisiv200-linux-gnueabi/4.4.1/libgcc.a(bpabi.o)
 .debug_line    0x0001bea6      0x1f2 /opt/hisi-linux/x86-arm/arm-hisiv200-linux/bin/../lib/gcc/arm-hisiv200-linux-gnueabi/4.4.1/libgcc.a(_divdi3.o)
 .debug_line    0x0001c098      0x1e4 /opt/hisi-linux/x86-arm/arm-hisiv200-linux/bin/../lib/gcc/arm-hisiv200-linux-gnueabi/4.4.1/libgcc.a(_udivdi3.o)

.debug_info     0x00000000    0x9d6c3
 .debug_info    0x00000000       0x7c arch/arm/cpu/hi3716mv310/start.o
 .debug_info    0x0000007c      0x3fe arch/arm/cpu/hi3716mv310/lowlevel_init.o
 .debug_info    0x0000047a       0xd1 arch/arm/cpu/hi3716mv310/chip.o
 .debug_info    0x0000054b       0x8f arch/arm/cpu/hi3716mv310/ddrphy_train.o
 .debug_info    0x000005da      0x1f3 arch/arm/cpu/hi3716mv310/ddrphy_training.o
 .debug_info    0x000007cd      0x9f1 arch/arm/cpu/hi3716mv310/ddr_dataeye_training.o
 .debug_info    0x000011be       0x7a arch/arm/cpu/hi3716mv310/irq.o
 .debug_info    0x00001238       0x7b arch/arm/cpu/hi3716mv310/uart.o
 .debug_info    0x000012b3       0x8c arch/arm/cpu/hi3716mv310/libhi3716mv310.a(ddrphy_training_print.o)
 .debug_info    0x0000133f       0xaa arch/arm/cpu/hi3716mv310/libhi3716mv310.a(hi3716mv310_ddr_training.o)
 .debug_info    0x000013e9      0x449 arch/arm/lib/libarm.a(board.o)
 .debug_info    0x00001832      0x261 arch/arm/lib/libarm.a(interrupts.o)
 .debug_info    0x00001a93      0x20f arch/arm/lib/libarm.a(ddr_layout.o)
 .debug_info    0x00001ca2       0xf5 arch/arm/lib/libarm.a(ddr_size.o)
 .debug_info    0x00001d97      0x3c9 arch/arm/lib/libarm.a(cpu_info.o)
 .debug_info    0x00002160      0x967 net/libnet.a(eth.o)
 .debug_info    0x00002ac7     0x1428 net/libnet.a(net.o)
 .debug_info    0x00003eef      0x253 net/libnet.a(rarp.o)
 .debug_info    0x00004142      0x5c5 net/libnet.a(tftp.o)
 .debug_info    0x00004707      0x84f net/libnet.a(bootp.o)
 .debug_info    0x00004f56     0x126d drivers/mtd/nand/libnand.a(nand.o)
 .debug_info    0x000061c3     0x1169 drivers/mtd/nand/libnand.a(hinfc_init.o)
 .debug_info    0x0000732c     0x384f drivers/mtd/nand/libnand.a(nand_base.o)
 .debug_info    0x0000ab7b     0x1fc2 drivers/mtd/nand/libnand.a(nand_bbt.o)
 .debug_info    0x0000cb3d      0x9ef drivers/mtd/nand/libnand.a(nand_ecc.o)
 .debug_info    0x0000d52c      0x152 drivers/mtd/nand/libnand.a(nand_ids.o)
 .debug_info    0x0000d67e     0x2817 drivers/mtd/nand/libnand.a(hinfc610.o)
 .debug_info    0x0000fe95      0x20d drivers/mtd/nand/libnand.a(hinfc610_gen.o)
 .debug_info    0x000100a2     0x14cb drivers/mtd/nand/libnand.a(hinfc610_read_retry.o)
 .debug_info    0x0001156d     0x17a8 drivers/mtd/nand/libnand.a(hinfc610_ecc_info.o)
 .debug_info    0x00012d15     0x1712 drivers/mtd/nand/libnand.a(hinfc610_sync.o)
 .debug_info    0x00014427      0x1f5 drivers/mtd/nand/libnand.a(hinfc620_gen.o)
 .debug_info    0x0001461c     0x15b0 drivers/mtd/nand/libnand.a(hinfc610_sync_onfi_23.o)
 .debug_info    0x00015bcc     0x159e drivers/mtd/nand/libnand.a(hinfc610_sync_toggle.o)
 .debug_info    0x0001716a      0x122 drivers/mtd/nand/libnand.a(hinfc610_rw_latch.o)
 .debug_info    0x0001728c       0xd9 drivers/mtd/nand/libnand.a(hinfc610_rw_latch_hi3716mv310.o)
 .debug_info    0x00017365     0x1276 drivers/mtd/nand/libnand.a(hinfc_gen.o)
 .debug_info    0x000185db     0x1473 drivers/mtd/nand/libnand.a(nand_spl_ids.o)
 .debug_info    0x00019a4e     0x17c0 drivers/mtd/nand/libnand.a(hinfc610_read_retry_hynix_bg_cdie.o)
 .debug_info    0x0001b20e     0x1602 drivers/mtd/nand/libnand.a(hinfc610_read_retry_hynix_bg_bdie.o)
 .debug_info    0x0001c810     0x17c1 drivers/mtd/nand/libnand.a(hinfc610_read_retry_hynix_cg_adie.o)
 .debug_info    0x0001dfd1     0x14eb drivers/mtd/nand/libnand.a(hinfc610_read_retry_micron.o)
 .debug_info    0x0001f4bc     0x1568 drivers/mtd/nand/libnand.a(hinfc610_read_retry_samsung.o)
 .debug_info    0x00020a24     0x15bb drivers/mtd/nand/libnand.a(hinfc610_read_retry_toshiba_24nm.o)
 .debug_info    0x00021fdf     0x160c drivers/mtd/nand/libnand.a(hinfc610_read_retry_toshiba_19nm.o)
 .debug_info    0x000235eb      0x28b drivers/serial/libserial.a(serial_pl01x.o)
 .debug_info    0x00023876      0x4b8 common/libcommon.a(bootstrap.o)
 .debug_info    0x00023d2e      0x270 common/libcommon.a(cmd_boot.o)
 .debug_info    0x00023f9e      0xf4c common/libcommon.a(cmd_bootm.o)
 .debug_info    0x00024eea      0x684 common/libcommon.a(cmd_ddr_training.o)
 .debug_info    0x0002556e      0x345 common/libcommon.a(cmd_getinfo.o)
 .debug_info    0x000258b3      0x1ef common/libcommon.a(cmd_help.o)
 .debug_info    0x00025aa2      0xac6 common/libcommon.a(cmd_load.o)
 .debug_info    0x00026568      0xa2b common/libcommon.a(cmd_mem.o)
 .debug_info    0x00026f93      0x784 common/libcommon.a(cmd_mii.o)
 .debug_info    0x00027717     0x196d common/libcommon.a(cmd_nand.o)
 .debug_info    0x00029084      0x569 common/libcommon.a(cmd_net.o)
 .debug_info    0x000295ed      0x89e common/libcommon.a(cmd_nvedit.o)
 .debug_info    0x00029e8b      0x1db common/libcommon.a(cmd_version.o)
 .debug_info    0x0002a066      0x920 common/libcommon.a(command.o)
 .debug_info    0x0002a986      0xa46 common/libcommon.a(console.o)
 .debug_info    0x0002b3cc      0xc53 common/libcommon.a(dlmalloc.o)
 .debug_info    0x0002c01f      0x491 common/libcommon.a(env_common.o)
 .debug_info    0x0002c4b0      0x26e common/libcommon.a(env_common_func.o)
 .debug_info    0x0002c71e      0xe89 common/libcommon.a(env_nand.o)
 .debug_info    0x0002d5a7      0x2cf common/libcommon.a(exports.o)
 .debug_info    0x0002d876      0x30c common/libcommon.a(hi3716mv310_ddr_training_printf.o)
 .debug_info    0x0002db82     0x10fe common/libcommon.a(image.o)
 .debug_info    0x0002ec80      0xdc1 common/libcommon.a(main.o)
 .debug_info    0x0002fa41      0x731 common/libcommon.a(miiphyutil.o)
 .debug_info    0x00030172     0x1a45 common/libcommon.a(nand_logif.o)
 .debug_info    0x00031bb7      0x645 common/libcommon.a(spiflash_logif.o)
 .debug_info    0x000321fc      0x59c common/libcommon.a(stdio.o)
 .debug_info    0x00032798      0x77d common/libcommon.a(xyzModem.o)
 .debug_info    0x00032f15      0xfa1 /home/zyq/share/HI3716STD310/source/boot/product/libproduct.a(main.o)
 .debug_info    0x00033eb6     0x13a8 /home/zyq/share/HI3716STD310/source/boot/product/libproduct.a(schedule.o)
 .debug_info    0x0003525e      0x5b6 /home/zyq/share/HI3716STD310/source/boot/product/libproduct.a(boot_debug.o)
 .debug_info    0x00035814      0x26a /home/zyq/share/HI3716STD310/source/boot/product/libproduct.a(boot_mem.o)
 .debug_info    0x00035a7e      0x330 /home/zyq/share/HI3716STD310/source/boot/product/libproduct.a(common_str.o)
 .debug_info    0x00035dae      0x2c0 /home/zyq/share/HI3716STD310/source/boot/product/libproduct.a(drv_osal.o)
 .debug_info    0x0003606e     0x1456 /home/zyq/share/HI3716STD310/source/boot/product/libproduct.a(hi_adp_flash.o)
 .debug_info    0x000374c4      0x75a /home/zyq/share/HI3716STD310/source/boot/product/libproduct.a(hi_go_bliter.o)
 .debug_info    0x00037c1e      0x2fc /home/zyq/share/HI3716STD310/source/boot/product/libproduct.a(hi_go_comm.o)
 .debug_info    0x00037f1a      0xf1a /home/zyq/share/HI3716STD310/source/boot/product/libproduct.a(hi_go_decoder.o)
 .debug_info    0x00038e34     0x13f2 /home/zyq/share/HI3716STD310/source/boot/product/libproduct.a(hi_go_gdev.o)
 .debug_info    0x0003a226      0x5e4 /home/zyq/share/HI3716STD310/source/boot/product/libproduct.a(higo_memsurface.o)
 .debug_info    0x0003a80a      0x5f0 /home/zyq/share/HI3716STD310/source/boot/product/libproduct.a(hi_go_surface.o)
 .debug_info    0x0003adfa      0x9da /home/zyq/share/HI3716STD310/source/boot/product/libproduct.a(higo_surface.o)
 .debug_info    0x0003b7d4     0x11c0 /home/zyq/share/HI3716STD310/source/boot/product/libproduct.a(adp_jpeg.o)
 .debug_info    0x0003c994     0x1bc7 /home/zyq/share/HI3716STD310/source/boot/product/libproduct.a(jpg_decctrl.o)
 .debug_info    0x0003e55b      0x347 /home/zyq/share/HI3716STD310/source/boot/product/libproduct.a(jpg_handle.o)
 .debug_info    0x0003e8a2     0x1e9b /home/zyq/share/HI3716STD310/source/boot/product/libproduct.a(jpg_hdec.o)
 .debug_info    0x0004073d     0x1a7a /home/zyq/share/HI3716STD310/source/boot/product/libproduct.a(jpg_parse.o)
 .debug_info    0x000421b7      0x568 /home/zyq/share/HI3716STD310/source/boot/product/libproduct.a(drv_i2c.o)
 .debug_info    0x0004271f      0x5cd /home/zyq/share/HI3716STD310/source/boot/product/libproduct.a(drv_gpio.o)
 .debug_info    0x00042cec     0x1a2d /home/zyq/share/HI3716STD310/source/boot/product/libproduct.a(boot_pdm.o)
 .debug_info    0x00044719      0x8c6 /home/zyq/share/HI3716STD310/source/boot/product/libproduct.a(hdmi.o)
 .debug_info    0x00044fdf      0x33f /home/zyq/share/HI3716STD310/source/boot/product/libproduct.a(txvidp.o)
 .debug_info    0x0004531e      0x2b7 /home/zyq/share/HI3716STD310/source/boot/product/libproduct.a(infofrm.o)
 .debug_info    0x000455d5      0x581 /home/zyq/share/HI3716STD310/source/boot/product/libproduct.a(hdmitx.o)
 .debug_info    0x00045b56      0x216 /home/zyq/share/HI3716STD310/source/boot/product/libproduct.a(drv_hlviic.o)
 .debug_info    0x00045d6c      0x1bf /home/zyq/share/HI3716STD310/source/boot/product/libproduct.a(txvptbl.o)
 .debug_info    0x00045f2b      0x479 /home/zyq/share/HI3716STD310/source/boot/product/libproduct.a(phy.o)
 .debug_info    0x000463a4      0x411 /home/zyq/share/HI3716STD310/source/boot/product/libproduct.a(de.o)
 .debug_info    0x000467b5      0x88d /home/zyq/share/HI3716STD310/source/boot/product/libproduct.a(hi_keyled_inner.o)
 .debug_info    0x00047042      0x4b3 /home/zyq/share/HI3716STD310/source/boot/product/libproduct.a(cmd_otp.o)
 .debug_info    0x000474f5     0x424a /home/zyq/share/HI3716STD310/source/boot/product/libproduct.a(otp.o)
 .debug_info    0x0004b73f      0x455 /home/zyq/share/HI3716STD310/source/boot/product/libproduct.a(unf_otp.o)
 .debug_info    0x0004bb94      0x310 /home/zyq/share/HI3716STD310/source/boot/product/libproduct.a(boot_logo.o)
 .debug_info    0x0004bea4      0x9e8 /home/zyq/share/HI3716STD310/source/boot/product/libproduct.a(boot_adp.o)
 .debug_info    0x0004c88c     0x1e76 /home/zyq/share/HI3716STD310/source/boot/product/libproduct.a(common_api.o)
 .debug_info    0x0004e702     0x791c /home/zyq/share/HI3716STD310/source/boot/product/libproduct.a(drv_reg_common.o)
 .debug_info    0x0005601e      0xb7a /home/zyq/share/HI3716STD310/source/boot/product/libproduct.a(drv_grc_adpt.o)
 .debug_info    0x00056b98     0x2455 /home/zyq/share/HI3716STD310/source/boot/product/libproduct.a(optm_hifb.o)
 .debug_info    0x00058fed     0x4271 /home/zyq/share/HI3716STD310/source/boot/product/libproduct.a(optm_m_disp.o)
 .debug_info    0x0005d25e     0x19d5 /home/zyq/share/HI3716STD310/source/boot/product/libproduct.a(vo_wrap.o)
 .debug_info    0x0005ec33     0x3690 /home/zyq/share/HI3716STD310/source/boot/product/libproduct.a(optm_alg_api.o)
 .debug_info    0x000622c3     0x23da /home/zyq/share/HI3716STD310/source/boot/product/libproduct.a(optm_alg.o)
 .debug_info    0x0006469d     0x1a0f /home/zyq/share/HI3716STD310/source/boot/product/libproduct.a(adp_gfx.o)
 .debug_info    0x000660ac      0x726 /home/zyq/share/HI3716STD310/source/boot/product/libproduct.a(adp_layer.o)
 .debug_info    0x000667d2      0x1ba /home/zyq/share/HI3716STD310/source/boot/product/libproduct.a(hi_api_mmz.o)
 .debug_info    0x0006698c      0x79c /home/zyq/share/HI3716STD310/source/boot/product/libproduct.a(higo_blit.o)
 .debug_info    0x00067128      0x83c /home/zyq/share/HI3716STD310/source/boot/product/libproduct.a(higo_io.o)
 .debug_info    0x00067964      0x2f0 /home/zyq/share/HI3716STD310/source/boot/product/libproduct.a(higo_memory.o)
 .debug_info    0x00067c54      0xe20 /home/zyq/share/HI3716STD310/source/boot/product/libproduct.a(hi_api_tde.o)
 .debug_info    0x00068a74     0x50fb /home/zyq/share/HI3716STD310/source/boot/product/libproduct.a(tde_osictl.o)
 .debug_info    0x0006db6f     0x11e3 /home/zyq/share/HI3716STD310/source/boot/product/libproduct.a(tde_osilist.o)
 .debug_info    0x0006ed52       0xb2 /home/zyq/share/HI3716STD310/source/boot/product/libproduct.a(tde_osr.o)
 .debug_info    0x0006ee04      0x4d5 /home/zyq/share/HI3716STD310/source/boot/product/libproduct.a(wmalloc.o)
 .debug_info    0x0006f2d9      0x54d /home/zyq/share/HI3716STD310/source/boot/product/libproduct.a(jpg_buf.o)
 .debug_info    0x0006f826      0x1b8 /home/zyq/share/HI3716STD310/source/boot/product/libproduct.a(jpg_drvapi.o)
 .debug_info    0x0006f9de      0x410 /home/zyq/share/HI3716STD310/source/boot/product/libproduct.a(vmtables.o)
 .debug_info    0x0006fdee      0x1b3 /home/zyq/share/HI3716STD310/source/boot/product/libproduct.a(optm_disp_rwzb.o)
 .debug_info    0x0006ffa1    0x1e4c0 /home/zyq/share/HI3716STD310/source/boot/product/libproduct.a(optm_hal.o)
 .debug_info    0x0008e461     0x2ba6 /home/zyq/share/HI3716STD310/source/boot/product/libproduct.a(tde_hal.o)
 .debug_info    0x00091007      0x2dc board/hi3716mv310/libhi3716mv310.a(board.o)
 .debug_info    0x000912e3      0x70b board/hi3716mv310/libhi3716mv310.a(eth_cfg_setup.o)
 .debug_info    0x000919ee      0x10c lib/libgeneric.a(crc16.o)
 .debug_info    0x00091afa      0x268 lib/libgeneric.a(crc32.o)
 .debug_info    0x00091d62       0x52 lib/libgeneric.a(ctype.o)
 .debug_info    0x00091db4      0x310 lib/libgeneric.a(display_options.o)
 .debug_info    0x000920c4      0x12b lib/libgeneric.a(div64.o)
 .debug_info    0x000921ef      0x137 lib/libgeneric.a(net_utils.o)
 .debug_info    0x00092326      0x8bf lib/libgeneric.a(string.o)
 .debug_info    0x00092be5       0xdb lib/libgeneric.a(time.o)
 .debug_info    0x00092cc0      0xb0d lib/libgeneric.a(vsprintf.o)
 .debug_info    0x000937cd      0x9c4 lib/libgeneric.a(vsnprintf.o)
 .debug_info    0x00094191      0x50c lib/libgeneric.a(reserve_mem.o)
 .debug_info    0x0009469d      0x37b lib/libgeneric.a(parse_bootargs.o)
 .debug_info    0x00094a18      0x240 lib/libgeneric.a(match_table.o)
 .debug_info    0x00094c58      0x30b lib/libgeneric.a(bootimg.o)
 .debug_info    0x00094f63      0x24e arch/arm/cpu/hi3716mv310/libhi3716mv310.a(cpu.o)
 .debug_info    0x000951b1      0x329 arch/arm/cpu/hi3716mv310/libhi3716mv310.a(timer.o)
 .debug_info    0x000954da       0x6e arch/arm/lib/libarm.a(mmu.o)
 .debug_info    0x00095548      0xde4 arch/arm/lib/libarm.a(bootm.o)
 .debug_info    0x0009632c      0x25d arch/arm/lib/libarm.a(tags.o)
 .debug_info    0x00096589       0xa4 arch/arm/lib/libarm.a(cache.o)
 .debug_info    0x0009662d      0x124 arch/arm/lib/libarm.a(cache-cp15.o)
 .debug_info    0x00096751      0x1ad arch/arm/lib/libarm.a(reset.o)
 .debug_info    0x000968fe      0x115 arch/arm/lib/libarm.a(process.o)
 .debug_info    0x00096a13      0x309 drivers/mtd/nand/libnand.a(hinfc_yaffs.o)
 .debug_info    0x00096d1c     0x1a24 drivers/mtd/nand/libnand.a(nand_util.o)
 .debug_info    0x00098740      0x39e drivers/mtd/spi/libspi_flash.a(spi_compatible.o)
 .debug_info    0x00098ade      0xd8f drivers/net/hisfv300/libhisfv300.a(net-drv.o)
 .debug_info    0x0009986d      0x251 drivers/net/hisfv300/libhisfv300.a(mii-drv.o)
 .debug_info    0x00099abe      0x4b4 drivers/net/hisfv300/libhisfv300.a(ctrl.o)
 .debug_info    0x00099f72      0x683 drivers/net/hisfv300/libhisfv300.a(glb.o)
 .debug_info    0x0009a5f5      0x89f drivers/net/hisfv300/libhisfv300.a(mac.o)
 .debug_info    0x0009ae94      0x273 drivers/net/hisfv300/libhisfv300.a(mdio.o)
 .debug_info    0x0009b107      0x338 drivers/net/hisfv300/libhisfv300.a(sys.o)
 .debug_info    0x0009b43f      0x4c8 drivers/net/hisfv300/libhisfv300.a(phy_fix.o)
 .debug_info    0x0009b907      0x6a3 common/libcommon.a(flash_part.o)
 .debug_info    0x0009bfaa       0xb2 /home/zyq/share/HI3716STD310/source/boot/fastboot/arch/arm/lib/eabi_compat.o
 .debug_info    0x0009c05c       0xb9 /opt/hisi-linux/x86-arm/arm-hisiv200-linux/bin/../lib/gcc/arm-hisiv200-linux-gnueabi/4.4.1/libgcc.a(_udivsi3.o)
 .debug_info    0x0009c115       0xb9 /opt/hisi-linux/x86-arm/arm-hisiv200-linux/bin/../lib/gcc/arm-hisiv200-linux-gnueabi/4.4.1/libgcc.a(_divsi3.o)
 .debug_info    0x0009c1ce       0xb9 /opt/hisi-linux/x86-arm/arm-hisiv200-linux/bin/../lib/gcc/arm-hisiv200-linux-gnueabi/4.4.1/libgcc.a(_lshrdi3.o)
 .debug_info    0x0009c287       0xb9 /opt/hisi-linux/x86-arm/arm-hisiv200-linux/bin/../lib/gcc/arm-hisiv200-linux-gnueabi/4.4.1/libgcc.a(_ashrdi3.o)
 .debug_info    0x0009c340       0xb9 /opt/hisi-linux/x86-arm/arm-hisiv200-linux/bin/../lib/gcc/arm-hisiv200-linux-gnueabi/4.4.1/libgcc.a(_ashldi3.o)
 .debug_info    0x0009c3f9       0xb3 /opt/hisi-linux/x86-arm/arm-hisiv200-linux/bin/../lib/gcc/arm-hisiv200-linux-gnueabi/4.4.1/libgcc.a(_aeabi_uldivmod.o)
 .debug_info    0x0009c4ac       0xb9 /opt/hisi-linux/x86-arm/arm-hisiv200-linux/bin/../lib/gcc/arm-hisiv200-linux-gnueabi/4.4.1/libgcc.a(_dvmd_lnx.o)
 .debug_info    0x0009c565       0xe2 /opt/hisi-linux/x86-arm/arm-hisiv200-linux/bin/../lib/gcc/arm-hisiv200-linux-gnueabi/4.4.1/libgcc.a(bpabi.o)
 .debug_info    0x0009c647      0x850 /opt/hisi-linux/x86-arm/arm-hisiv200-linux/bin/../lib/gcc/arm-hisiv200-linux-gnueabi/4.4.1/libgcc.a(_divdi3.o)
 .debug_info    0x0009ce97      0x82c /opt/hisi-linux/x86-arm/arm-hisiv200-linux/bin/../lib/gcc/arm-hisiv200-linux-gnueabi/4.4.1/libgcc.a(_udivdi3.o)

.debug_abbrev   0x00000000    0x1390f
 .debug_abbrev  0x00000000       0x14 arch/arm/cpu/hi3716mv310/start.o
 .debug_abbrev  0x00000014      0x1db arch/arm/cpu/hi3716mv310/lowlevel_init.o
 .debug_abbrev  0x000001ef       0xa0 arch/arm/cpu/hi3716mv310/chip.o
 .debug_abbrev  0x0000028f       0x14 arch/arm/cpu/hi3716mv310/ddrphy_train.o
 .debug_abbrev  0x000002a3       0xf7 arch/arm/cpu/hi3716mv310/ddrphy_training.o
 .debug_abbrev  0x0000039a      0x2b5 arch/arm/cpu/hi3716mv310/ddr_dataeye_training.o
 .debug_abbrev  0x0000064f       0x14 arch/arm/cpu/hi3716mv310/irq.o
 .debug_abbrev  0x00000663       0x14 arch/arm/cpu/hi3716mv310/uart.o
 .debug_abbrev  0x00000677       0x14 arch/arm/cpu/hi3716mv310/libhi3716mv310.a(ddrphy_training_print.o)
 .debug_abbrev  0x0000068b       0x68 arch/arm/cpu/hi3716mv310/libhi3716mv310.a(hi3716mv310_ddr_training.o)
 .debug_abbrev  0x000006f3      0x22c arch/arm/lib/libarm.a(board.o)
 .debug_abbrev  0x0000091f       0xfe arch/arm/lib/libarm.a(interrupts.o)
 .debug_abbrev  0x00000a1d      0x119 arch/arm/lib/libarm.a(ddr_layout.o)
 .debug_abbrev  0x00000b36       0x87 arch/arm/lib/libarm.a(ddr_size.o)
 .debug_abbrev  0x00000bbd      0x15b arch/arm/lib/libarm.a(cpu_info.o)
 .debug_abbrev  0x00000d18      0x355 net/libnet.a(eth.o)
 .debug_abbrev  0x0000106d      0x474 net/libnet.a(net.o)
 .debug_abbrev  0x000014e1      0x13a net/libnet.a(rarp.o)
 .debug_abbrev  0x0000161b      0x236 net/libnet.a(tftp.o)
 .debug_abbrev  0x00001851      0x313 net/libnet.a(bootp.o)
 .debug_abbrev  0x00001b64      0x1f8 drivers/mtd/nand/libnand.a(nand.o)
 .debug_abbrev  0x00001d5c      0x199 drivers/mtd/nand/libnand.a(hinfc_init.o)
 .debug_abbrev  0x00001ef5      0x4b8 drivers/mtd/nand/libnand.a(nand_base.o)
 .debug_abbrev  0x000023ad      0x38f drivers/mtd/nand/libnand.a(nand_bbt.o)
 .debug_abbrev  0x0000273c      0x1df drivers/mtd/nand/libnand.a(nand_ecc.o)
 .debug_abbrev  0x0000291b       0x8c drivers/mtd/nand/libnand.a(nand_ids.o)
 .debug_abbrev  0x000029a7      0x3fc drivers/mtd/nand/libnand.a(hinfc610.o)
 .debug_abbrev  0x00002da3       0xd0 drivers/mtd/nand/libnand.a(hinfc610_gen.o)
 .debug_abbrev  0x00002e73      0x193 drivers/mtd/nand/libnand.a(hinfc610_read_retry.o)
 .debug_abbrev  0x00003006      0x21b drivers/mtd/nand/libnand.a(hinfc610_ecc_info.o)
 .debug_abbrev  0x00003221      0x25f drivers/mtd/nand/libnand.a(hinfc610_sync.o)
 .debug_abbrev  0x00003480       0xd0 drivers/mtd/nand/libnand.a(hinfc620_gen.o)
 .debug_abbrev  0x00003550      0x1b4 drivers/mtd/nand/libnand.a(hinfc610_sync_onfi_23.o)
 .debug_abbrev  0x00003704      0x1b4 drivers/mtd/nand/libnand.a(hinfc610_sync_toggle.o)
 .debug_abbrev  0x000038b8       0xc3 drivers/mtd/nand/libnand.a(hinfc610_rw_latch.o)
 .debug_abbrev  0x0000397b       0x8c drivers/mtd/nand/libnand.a(hinfc610_rw_latch_hi3716mv310.o)
 .debug_abbrev  0x00003a07      0x179 drivers/mtd/nand/libnand.a(hinfc_gen.o)
 .debug_abbrev  0x00003b80      0x21b drivers/mtd/nand/libnand.a(nand_spl_ids.o)
 .debug_abbrev  0x00003d9b      0x27e drivers/mtd/nand/libnand.a(hinfc610_read_retry_hynix_bg_cdie.o)
 .debug_abbrev  0x00004019      0x21d drivers/mtd/nand/libnand.a(hinfc610_read_retry_hynix_bg_bdie.o)
 .debug_abbrev  0x00004236      0x27e drivers/mtd/nand/libnand.a(hinfc610_read_retry_hynix_cg_adie.o)
 .debug_abbrev  0x000044b4      0x1b3 drivers/mtd/nand/libnand.a(hinfc610_read_retry_micron.o)
 .debug_abbrev  0x00004667      0x1be drivers/mtd/nand/libnand.a(hinfc610_read_retry_samsung.o)
 .debug_abbrev  0x00004825      0x1cb drivers/mtd/nand/libnand.a(hinfc610_read_retry_toshiba_24nm.o)
 .debug_abbrev  0x000049f0      0x1cb drivers/mtd/nand/libnand.a(hinfc610_read_retry_toshiba_19nm.o)
 .debug_abbrev  0x00004bbb      0x181 drivers/serial/libserial.a(serial_pl01x.o)
 .debug_abbrev  0x00004d3c      0x24c common/libcommon.a(bootstrap.o)
 .debug_abbrev  0x00004f88       0xee common/libcommon.a(cmd_boot.o)
 .debug_abbrev  0x00005076      0x370 common/libcommon.a(cmd_bootm.o)
 .debug_abbrev  0x000053e6      0x2b2 common/libcommon.a(cmd_ddr_training.o)
 .debug_abbrev  0x00005698      0x123 common/libcommon.a(cmd_getinfo.o)
 .debug_abbrev  0x000057bb       0xd2 common/libcommon.a(cmd_help.o)
 .debug_abbrev  0x0000588d      0x300 common/libcommon.a(cmd_load.o)
 .debug_abbrev  0x00005b8d      0x1c1 common/libcommon.a(cmd_mem.o)
 .debug_abbrev  0x00005d4e      0x236 common/libcommon.a(cmd_mii.o)
 .debug_abbrev  0x00005f84      0x387 common/libcommon.a(cmd_nand.o)
 .debug_abbrev  0x0000630b      0x1d0 common/libcommon.a(cmd_net.o)
 .debug_abbrev  0x000064db      0x279 common/libcommon.a(cmd_nvedit.o)
 .debug_abbrev  0x00006754       0xe0 common/libcommon.a(cmd_version.o)
 .debug_abbrev  0x00006834      0x308 common/libcommon.a(command.o)
 .debug_abbrev  0x00006b3c      0x387 common/libcommon.a(console.o)
 .debug_abbrev  0x00006ec3      0x278 common/libcommon.a(dlmalloc.o)
 .debug_abbrev  0x0000713b      0x22c common/libcommon.a(env_common.o)
 .debug_abbrev  0x00007367      0x13b common/libcommon.a(env_common_func.o)
 .debug_abbrev  0x000074a2      0x2bd common/libcommon.a(env_nand.o)
 .debug_abbrev  0x0000775f      0x112 common/libcommon.a(exports.o)
 .debug_abbrev  0x00007871      0x13a common/libcommon.a(hi3716mv310_ddr_training_printf.o)
 .debug_abbrev  0x000079ab      0x3f6 common/libcommon.a(image.o)
 .debug_abbrev  0x00007da1      0x33d common/libcommon.a(main.o)
 .debug_abbrev  0x000080de      0x200 common/libcommon.a(miiphyutil.o)
 .debug_abbrev  0x000082de      0x371 common/libcommon.a(nand_logif.o)
 .debug_abbrev  0x0000864f      0x199 common/libcommon.a(spiflash_logif.o)
 .debug_abbrev  0x000087e8      0x20b common/libcommon.a(stdio.o)
 .debug_abbrev  0x000089f3      0x2b4 common/libcommon.a(xyzModem.o)
 .debug_abbrev  0x00008ca7      0x1eb /home/zyq/share/HI3716STD310/source/boot/product/libproduct.a(main.o)
 .debug_abbrev  0x00008e92      0x2ac /home/zyq/share/HI3716STD310/source/boot/product/libproduct.a(schedule.o)
 .debug_abbrev  0x0000913e      0x153 /home/zyq/share/HI3716STD310/source/boot/product/libproduct.a(boot_debug.o)
 .debug_abbrev  0x00009291      0x129 /home/zyq/share/HI3716STD310/source/boot/product/libproduct.a(boot_mem.o)
 .debug_abbrev  0x000093ba      0x11d /home/zyq/share/HI3716STD310/source/boot/product/libproduct.a(common_str.o)
 .debug_abbrev  0x000094d7      0x118 /home/zyq/share/HI3716STD310/source/boot/product/libproduct.a(drv_osal.o)
 .debug_abbrev  0x000095ef      0x255 /home/zyq/share/HI3716STD310/source/boot/product/libproduct.a(hi_adp_flash.o)
 .debug_abbrev  0x00009844      0x196 /home/zyq/share/HI3716STD310/source/boot/product/libproduct.a(hi_go_bliter.o)
 .debug_abbrev  0x000099da      0x100 /home/zyq/share/HI3716STD310/source/boot/product/libproduct.a(hi_go_comm.o)
 .debug_abbrev  0x00009ada      0x2a0 /home/zyq/share/HI3716STD310/source/boot/product/libproduct.a(hi_go_decoder.o)
 .debug_abbrev  0x00009d7a      0x1d5 /home/zyq/share/HI3716STD310/source/boot/product/libproduct.a(hi_go_gdev.o)
 .debug_abbrev  0x00009f4f      0x17d /home/zyq/share/HI3716STD310/source/boot/product/libproduct.a(higo_memsurface.o)
 .debug_abbrev  0x0000a0cc      0x145 /home/zyq/share/HI3716STD310/source/boot/product/libproduct.a(hi_go_surface.o)
 .debug_abbrev  0x0000a211      0x1a4 /home/zyq/share/HI3716STD310/source/boot/product/libproduct.a(higo_surface.o)
 .debug_abbrev  0x0000a3b5      0x223 /home/zyq/share/HI3716STD310/source/boot/product/libproduct.a(adp_jpeg.o)
 .debug_abbrev  0x0000a5d8      0x29d /home/zyq/share/HI3716STD310/source/boot/product/libproduct.a(jpg_decctrl.o)
 .debug_abbrev  0x0000a875      0x127 /home/zyq/share/HI3716STD310/source/boot/product/libproduct.a(jpg_handle.o)
 .debug_abbrev  0x0000a99c      0x38e /home/zyq/share/HI3716STD310/source/boot/product/libproduct.a(jpg_hdec.o)
 .debug_abbrev  0x0000ad2a      0x2b3 /home/zyq/share/HI3716STD310/source/boot/product/libproduct.a(jpg_parse.o)
 .debug_abbrev  0x0000afdd      0x148 /home/zyq/share/HI3716STD310/source/boot/product/libproduct.a(drv_i2c.o)
 .debug_abbrev  0x0000b125      0x190 /home/zyq/share/HI3716STD310/source/boot/product/libproduct.a(drv_gpio.o)
 .debug_abbrev  0x0000b2b5      0x30c /home/zyq/share/HI3716STD310/source/boot/product/libproduct.a(boot_pdm.o)
 .debug_abbrev  0x0000b5c1      0x245 /home/zyq/share/HI3716STD310/source/boot/product/libproduct.a(hdmi.o)
 .debug_abbrev  0x0000b806      0x16b /home/zyq/share/HI3716STD310/source/boot/product/libproduct.a(txvidp.o)
 .debug_abbrev  0x0000b971      0x148 /home/zyq/share/HI3716STD310/source/boot/product/libproduct.a(infofrm.o)
 .debug_abbrev  0x0000bab9      0x204 /home/zyq/share/HI3716STD310/source/boot/product/libproduct.a(hdmitx.o)
 .debug_abbrev  0x0000bcbd       0xc8 /home/zyq/share/HI3716STD310/source/boot/product/libproduct.a(drv_hlviic.o)
 .debug_abbrev  0x0000bd85       0x73 /home/zyq/share/HI3716STD310/source/boot/product/libproduct.a(txvptbl.o)
 .debug_abbrev  0x0000bdf8      0x174 /home/zyq/share/HI3716STD310/source/boot/product/libproduct.a(phy.o)
 .debug_abbrev  0x0000bf6c       0xe2 /home/zyq/share/HI3716STD310/source/boot/product/libproduct.a(de.o)
 .debug_abbrev  0x0000c04e      0x1f8 /home/zyq/share/HI3716STD310/source/boot/product/libproduct.a(hi_keyled_inner.o)
 .debug_abbrev  0x0000c246      0x116 /home/zyq/share/HI3716STD310/source/boot/product/libproduct.a(cmd_otp.o)
 .debug_abbrev  0x0000c35c      0x393 /home/zyq/share/HI3716STD310/source/boot/product/libproduct.a(otp.o)
 .debug_abbrev  0x0000c6ef      0x153 /home/zyq/share/HI3716STD310/source/boot/product/libproduct.a(unf_otp.o)
 .debug_abbrev  0x0000c842      0x140 /home/zyq/share/HI3716STD310/source/boot/product/libproduct.a(boot_logo.o)
 .debug_abbrev  0x0000c982      0x164 /home/zyq/share/HI3716STD310/source/boot/product/libproduct.a(boot_adp.o)
 .debug_abbrev  0x0000cae6      0x1bb /home/zyq/share/HI3716STD310/source/boot/product/libproduct.a(common_api.o)
 .debug_abbrev  0x0000cca1      0x17d /home/zyq/share/HI3716STD310/source/boot/product/libproduct.a(drv_reg_common.o)
 .debug_abbrev  0x0000ce1e      0x192 /home/zyq/share/HI3716STD310/source/boot/product/libproduct.a(drv_grc_adpt.o)
 .debug_abbrev  0x0000cfb0      0x26b /home/zyq/share/HI3716STD310/source/boot/product/libproduct.a(optm_hifb.o)
 .debug_abbrev  0x0000d21b      0x484 /home/zyq/share/HI3716STD310/source/boot/product/libproduct.a(optm_m_disp.o)
 .debug_abbrev  0x0000d69f      0x29e /home/zyq/share/HI3716STD310/source/boot/product/libproduct.a(vo_wrap.o)
 .debug_abbrev  0x0000d93d      0x362 /home/zyq/share/HI3716STD310/source/boot/product/libproduct.a(optm_alg_api.o)
 .debug_abbrev  0x0000dc9f      0x20e /home/zyq/share/HI3716STD310/source/boot/product/libproduct.a(optm_alg.o)
 .debug_abbrev  0x0000dead      0x309 /home/zyq/share/HI3716STD310/source/boot/product/libproduct.a(adp_gfx.o)
 .debug_abbrev  0x0000e1b6      0x1c5 /home/zyq/share/HI3716STD310/source/boot/product/libproduct.a(adp_layer.o)
 .debug_abbrev  0x0000e37b       0xcf /home/zyq/share/HI3716STD310/source/boot/product/libproduct.a(hi_api_mmz.o)
 .debug_abbrev  0x0000e44a      0x13c /home/zyq/share/HI3716STD310/source/boot/product/libproduct.a(higo_blit.o)
 .debug_abbrev  0x0000e586      0x218 /home/zyq/share/HI3716STD310/source/boot/product/libproduct.a(higo_io.o)
 .debug_abbrev  0x0000e79e      0x12e /home/zyq/share/HI3716STD310/source/boot/product/libproduct.a(higo_memory.o)
 .debug_abbrev  0x0000e8cc      0x18e /home/zyq/share/HI3716STD310/source/boot/product/libproduct.a(hi_api_tde.o)
 .debug_abbrev  0x0000ea5a      0x37a /home/zyq/share/HI3716STD310/source/boot/product/libproduct.a(tde_osictl.o)
 .debug_abbrev  0x0000edd4      0x34d /home/zyq/share/HI3716STD310/source/boot/product/libproduct.a(tde_osilist.o)
 .debug_abbrev  0x0000f121       0x5f /home/zyq/share/HI3716STD310/source/boot/product/libproduct.a(tde_osr.o)
 .debug_abbrev  0x0000f180      0x19f /home/zyq/share/HI3716STD310/source/boot/product/libproduct.a(wmalloc.o)
 .debug_abbrev  0x0000f31f      0x1c3 /home/zyq/share/HI3716STD310/source/boot/product/libproduct.a(jpg_buf.o)
 .debug_abbrev  0x0000f4e2       0xbd /home/zyq/share/HI3716STD310/source/boot/product/libproduct.a(jpg_drvapi.o)
 .debug_abbrev  0x0000f59f       0xad /home/zyq/share/HI3716STD310/source/boot/product/libproduct.a(vmtables.o)
 .debug_abbrev  0x0000f64c       0xd3 /home/zyq/share/HI3716STD310/source/boot/product/libproduct.a(optm_disp_rwzb.o)
 .debug_abbrev  0x0000f71f      0x3e2 /home/zyq/share/HI3716STD310/source/boot/product/libproduct.a(optm_hal.o)
 .debug_abbrev  0x0000fb01      0x3f9 /home/zyq/share/HI3716STD310/source/boot/product/libproduct.a(tde_hal.o)
 .debug_abbrev  0x0000fefa      0x16e board/hi3716mv310/libhi3716mv310.a(board.o)
 .debug_abbrev  0x00010068      0x240 board/hi3716mv310/libhi3716mv310.a(eth_cfg_setup.o)
 .debug_abbrev  0x000102a8       0xc6 lib/libgeneric.a(crc16.o)
 .debug_abbrev  0x0001036e       0xfe lib/libgeneric.a(crc32.o)
 .debug_abbrev  0x0001046c       0x4b lib/libgeneric.a(ctype.o)
 .debug_abbrev  0x000104b7      0x11e lib/libgeneric.a(display_options.o)
 .debug_abbrev  0x000105d5       0xab lib/libgeneric.a(div64.o)
 .debug_abbrev  0x00010680       0xdd lib/libgeneric.a(net_utils.o)
 .debug_abbrev  0x0001075d      0x1f4 lib/libgeneric.a(string.o)
 .debug_abbrev  0x00010951       0x8a lib/libgeneric.a(time.o)
 .debug_abbrev  0x000109db      0x314 lib/libgeneric.a(vsprintf.o)
 .debug_abbrev  0x00010cef      0x298 lib/libgeneric.a(vsnprintf.o)
 .debug_abbrev  0x00010f87      0x23b lib/libgeneric.a(reserve_mem.o)
 .debug_abbrev  0x000111c2      0x1a9 lib/libgeneric.a(parse_bootargs.o)
 .debug_abbrev  0x0001136b       0xdc lib/libgeneric.a(match_table.o)
 .debug_abbrev  0x00011447      0x12f lib/libgeneric.a(bootimg.o)
 .debug_abbrev  0x00011576      0x13c arch/arm/cpu/hi3716mv310/libhi3716mv310.a(cpu.o)
 .debug_abbrev  0x000116b2      0x172 arch/arm/cpu/hi3716mv310/libhi3716mv310.a(timer.o)
 .debug_abbrev  0x00011824       0x14 arch/arm/lib/libarm.a(mmu.o)
 .debug_abbrev  0x00011838      0x2ba arch/arm/lib/libarm.a(bootm.o)
 .debug_abbrev  0x00011af2      0x120 arch/arm/lib/libarm.a(tags.o)
 .debug_abbrev  0x00011c12       0x57 arch/arm/lib/libarm.a(cache.o)
 .debug_abbrev  0x00011c69       0xb2 arch/arm/lib/libarm.a(cache-cp15.o)
 .debug_abbrev  0x00011d1b       0xae arch/arm/lib/libarm.a(reset.o)
 .debug_abbrev  0x00011dc9       0xce arch/arm/lib/libarm.a(process.o)
 .debug_abbrev  0x00011e97       0xe6 drivers/mtd/nand/libnand.a(hinfc_yaffs.o)
 .debug_abbrev  0x00011f7d      0x374 drivers/mtd/nand/libnand.a(nand_util.o)
 .debug_abbrev  0x000122f1      0x133 drivers/mtd/spi/libspi_flash.a(spi_compatible.o)
 .debug_abbrev  0x00012424      0x3f8 drivers/net/hisfv300/libhisfv300.a(net-drv.o)
 .debug_abbrev  0x0001281c      0x10b drivers/net/hisfv300/libhisfv300.a(mii-drv.o)
 .debug_abbrev  0x00012927      0x175 drivers/net/hisfv300/libhisfv300.a(ctrl.o)
 .debug_abbrev  0x00012a9c       0xfa drivers/net/hisfv300/libhisfv300.a(glb.o)
 .debug_abbrev  0x00012b96      0x186 drivers/net/hisfv300/libhisfv300.a(mac.o)
 .debug_abbrev  0x00012d1c      0x14a drivers/net/hisfv300/libhisfv300.a(mdio.o)
 .debug_abbrev  0x00012e66      0x1d6 drivers/net/hisfv300/libhisfv300.a(sys.o)
 .debug_abbrev  0x0001303c      0x186 drivers/net/hisfv300/libhisfv300.a(phy_fix.o)
 .debug_abbrev  0x000131c2      0x262 common/libcommon.a(flash_part.o)
 .debug_abbrev  0x00013424       0x6e /home/zyq/share/HI3716STD310/source/boot/fastboot/arch/arm/lib/eabi_compat.o
 .debug_abbrev  0x00013492       0x14 /opt/hisi-linux/x86-arm/arm-hisiv200-linux/bin/../lib/gcc/arm-hisiv200-linux-gnueabi/4.4.1/libgcc.a(_udivsi3.o)
 .debug_abbrev  0x000134a6       0x14 /opt/hisi-linux/x86-arm/arm-hisiv200-linux/bin/../lib/gcc/arm-hisiv200-linux-gnueabi/4.4.1/libgcc.a(_divsi3.o)
 .debug_abbrev  0x000134ba       0x14 /opt/hisi-linux/x86-arm/arm-hisiv200-linux/bin/../lib/gcc/arm-hisiv200-linux-gnueabi/4.4.1/libgcc.a(_lshrdi3.o)
 .debug_abbrev  0x000134ce       0x14 /opt/hisi-linux/x86-arm/arm-hisiv200-linux/bin/../lib/gcc/arm-hisiv200-linux-gnueabi/4.4.1/libgcc.a(_ashrdi3.o)
 .debug_abbrev  0x000134e2       0x14 /opt/hisi-linux/x86-arm/arm-hisiv200-linux/bin/../lib/gcc/arm-hisiv200-linux-gnueabi/4.4.1/libgcc.a(_ashldi3.o)
 .debug_abbrev  0x000134f6       0x14 /opt/hisi-linux/x86-arm/arm-hisiv200-linux/bin/../lib/gcc/arm-hisiv200-linux-gnueabi/4.4.1/libgcc.a(_aeabi_uldivmod.o)
 .debug_abbrev  0x0001350a       0x14 /opt/hisi-linux/x86-arm/arm-hisiv200-linux/bin/../lib/gcc/arm-hisiv200-linux-gnueabi/4.4.1/libgcc.a(_dvmd_lnx.o)
 .debug_abbrev  0x0001351e       0x6c /opt/hisi-linux/x86-arm/arm-hisiv200-linux/bin/../lib/gcc/arm-hisiv200-linux-gnueabi/4.4.1/libgcc.a(bpabi.o)
 .debug_abbrev  0x0001358a      0x1cd /opt/hisi-linux/x86-arm/arm-hisiv200-linux/bin/../lib/gcc/arm-hisiv200-linux-gnueabi/4.4.1/libgcc.a(_divdi3.o)
 .debug_abbrev  0x00013757      0x1b8 /opt/hisi-linux/x86-arm/arm-hisiv200-linux/bin/../lib/gcc/arm-hisiv200-linux-gnueabi/4.4.1/libgcc.a(_udivdi3.o)

.debug_aranges  0x00000000     0x1620
 .debug_aranges
                0x00000000       0x20 arch/arm/cpu/hi3716mv310/start.o
 .debug_aranges
                0x00000020       0x20 arch/arm/cpu/hi3716mv310/lowlevel_init.o
 .debug_aranges
                0x00000040       0x20 arch/arm/cpu/hi3716mv310/chip.o
 .debug_aranges
                0x00000060       0x20 arch/arm/cpu/hi3716mv310/ddrphy_train.o
 .debug_aranges
                0x00000080       0x20 arch/arm/cpu/hi3716mv310/ddrphy_training.o
 .debug_aranges
                0x000000a0       0x20 arch/arm/cpu/hi3716mv310/ddr_dataeye_training.o
 .debug_aranges
                0x000000c0       0x20 arch/arm/cpu/hi3716mv310/irq.o
 .debug_aranges
                0x000000e0       0x20 arch/arm/cpu/hi3716mv310/uart.o
 .debug_aranges
                0x00000100       0x20 arch/arm/cpu/hi3716mv310/libhi3716mv310.a(ddrphy_training_print.o)
 .debug_aranges
                0x00000120       0x20 arch/arm/cpu/hi3716mv310/libhi3716mv310.a(hi3716mv310_ddr_training.o)
 .debug_aranges
                0x00000140       0x20 arch/arm/lib/libarm.a(board.o)
 .debug_aranges
                0x00000160       0x20 arch/arm/lib/libarm.a(interrupts.o)
 .debug_aranges
                0x00000180       0x20 arch/arm/lib/libarm.a(ddr_layout.o)
 .debug_aranges
                0x000001a0       0x20 arch/arm/lib/libarm.a(ddr_size.o)
 .debug_aranges
                0x000001c0       0x20 arch/arm/lib/libarm.a(cpu_info.o)
 .debug_aranges
                0x000001e0       0x20 net/libnet.a(eth.o)
 .debug_aranges
                0x00000200       0x20 net/libnet.a(net.o)
 .debug_aranges
                0x00000220       0x20 net/libnet.a(rarp.o)
 .debug_aranges
                0x00000240       0x20 net/libnet.a(tftp.o)
 .debug_aranges
                0x00000260       0x20 net/libnet.a(bootp.o)
 .debug_aranges
                0x00000280       0x20 drivers/mtd/nand/libnand.a(nand.o)
 .debug_aranges
                0x000002a0       0x20 drivers/mtd/nand/libnand.a(hinfc_init.o)
 .debug_aranges
                0x000002c0       0x20 drivers/mtd/nand/libnand.a(nand_base.o)
 .debug_aranges
                0x000002e0       0x20 drivers/mtd/nand/libnand.a(nand_bbt.o)
 .debug_aranges
                0x00000300       0x20 drivers/mtd/nand/libnand.a(nand_ecc.o)
 .debug_aranges
                0x00000320       0x20 drivers/mtd/nand/libnand.a(hinfc610.o)
 .debug_aranges
                0x00000340       0x20 drivers/mtd/nand/libnand.a(hinfc610_gen.o)
 .debug_aranges
                0x00000360       0x20 drivers/mtd/nand/libnand.a(hinfc610_read_retry.o)
 .debug_aranges
                0x00000380       0x20 drivers/mtd/nand/libnand.a(hinfc610_ecc_info.o)
 .debug_aranges
                0x000003a0       0x20 drivers/mtd/nand/libnand.a(hinfc610_sync.o)
 .debug_aranges
                0x000003c0       0x20 drivers/mtd/nand/libnand.a(hinfc620_gen.o)
 .debug_aranges
                0x000003e0       0x20 drivers/mtd/nand/libnand.a(hinfc610_sync_onfi_23.o)
 .debug_aranges
                0x00000400       0x20 drivers/mtd/nand/libnand.a(hinfc610_sync_toggle.o)
 .debug_aranges
                0x00000420       0x20 drivers/mtd/nand/libnand.a(hinfc610_rw_latch.o)
 .debug_aranges
                0x00000440       0x20 drivers/mtd/nand/libnand.a(hinfc_gen.o)
 .debug_aranges
                0x00000460       0x20 drivers/mtd/nand/libnand.a(nand_spl_ids.o)
 .debug_aranges
                0x00000480       0x20 drivers/mtd/nand/libnand.a(hinfc610_read_retry_hynix_bg_cdie.o)
 .debug_aranges
                0x000004a0       0x20 drivers/mtd/nand/libnand.a(hinfc610_read_retry_hynix_bg_bdie.o)
 .debug_aranges
                0x000004c0       0x20 drivers/mtd/nand/libnand.a(hinfc610_read_retry_hynix_cg_adie.o)
 .debug_aranges
                0x000004e0       0x20 drivers/mtd/nand/libnand.a(hinfc610_read_retry_micron.o)
 .debug_aranges
                0x00000500       0x20 drivers/mtd/nand/libnand.a(hinfc610_read_retry_samsung.o)
 .debug_aranges
                0x00000520       0x20 drivers/mtd/nand/libnand.a(hinfc610_read_retry_toshiba_24nm.o)
 .debug_aranges
                0x00000540       0x20 drivers/mtd/nand/libnand.a(hinfc610_read_retry_toshiba_19nm.o)
 .debug_aranges
                0x00000560       0x20 drivers/serial/libserial.a(serial_pl01x.o)
 .debug_aranges
                0x00000580       0x20 common/libcommon.a(bootstrap.o)
 .debug_aranges
                0x000005a0       0x20 common/libcommon.a(cmd_boot.o)
 .debug_aranges
                0x000005c0       0x20 common/libcommon.a(cmd_bootm.o)
 .debug_aranges
                0x000005e0       0x20 common/libcommon.a(cmd_ddr_training.o)
 .debug_aranges
                0x00000600       0x20 common/libcommon.a(cmd_getinfo.o)
 .debug_aranges
                0x00000620       0x20 common/libcommon.a(cmd_help.o)
 .debug_aranges
                0x00000640       0x20 common/libcommon.a(cmd_load.o)
 .debug_aranges
                0x00000660       0x20 common/libcommon.a(cmd_mem.o)
 .debug_aranges
                0x00000680       0x20 common/libcommon.a(cmd_mii.o)
 .debug_aranges
                0x000006a0       0x20 common/libcommon.a(cmd_nand.o)
 .debug_aranges
                0x000006c0       0x20 common/libcommon.a(cmd_net.o)
 .debug_aranges
                0x000006e0       0x20 common/libcommon.a(cmd_nvedit.o)
 .debug_aranges
                0x00000700       0x20 common/libcommon.a(cmd_version.o)
 .debug_aranges
                0x00000720       0x20 common/libcommon.a(command.o)
 .debug_aranges
                0x00000740       0x20 common/libcommon.a(console.o)
 .debug_aranges
                0x00000760       0x20 common/libcommon.a(dlmalloc.o)
 .debug_aranges
                0x00000780       0x20 common/libcommon.a(env_common.o)
 .debug_aranges
                0x000007a0       0x20 common/libcommon.a(env_common_func.o)
 .debug_aranges
                0x000007c0       0x20 common/libcommon.a(env_nand.o)
 .debug_aranges
                0x000007e0       0x20 common/libcommon.a(exports.o)
 .debug_aranges
                0x00000800       0x20 common/libcommon.a(hi3716mv310_ddr_training_printf.o)
 .debug_aranges
                0x00000820       0x20 common/libcommon.a(image.o)
 .debug_aranges
                0x00000840       0x20 common/libcommon.a(main.o)
 .debug_aranges
                0x00000860       0x20 common/libcommon.a(miiphyutil.o)
 .debug_aranges
                0x00000880       0x20 common/libcommon.a(nand_logif.o)
 .debug_aranges
                0x000008a0       0x20 common/libcommon.a(spiflash_logif.o)
 .debug_aranges
                0x000008c0       0x20 common/libcommon.a(stdio.o)
 .debug_aranges
                0x000008e0       0x20 common/libcommon.a(xyzModem.o)
 .debug_aranges
                0x00000900       0x20 /home/zyq/share/HI3716STD310/source/boot/product/libproduct.a(main.o)
 .debug_aranges
                0x00000920       0x20 /home/zyq/share/HI3716STD310/source/boot/product/libproduct.a(schedule.o)
 .debug_aranges
                0x00000940       0x20 /home/zyq/share/HI3716STD310/source/boot/product/libproduct.a(boot_debug.o)
 .debug_aranges
                0x00000960       0x20 /home/zyq/share/HI3716STD310/source/boot/product/libproduct.a(boot_mem.o)
 .debug_aranges
                0x00000980       0x20 /home/zyq/share/HI3716STD310/source/boot/product/libproduct.a(common_str.o)
 .debug_aranges
                0x000009a0       0x20 /home/zyq/share/HI3716STD310/source/boot/product/libproduct.a(drv_osal.o)
 .debug_aranges
                0x000009c0       0x20 /home/zyq/share/HI3716STD310/source/boot/product/libproduct.a(hi_adp_flash.o)
 .debug_aranges
                0x000009e0       0x20 /home/zyq/share/HI3716STD310/source/boot/product/libproduct.a(hi_go_bliter.o)
 .debug_aranges
                0x00000a00       0x20 /home/zyq/share/HI3716STD310/source/boot/product/libproduct.a(hi_go_comm.o)
 .debug_aranges
                0x00000a20       0x20 /home/zyq/share/HI3716STD310/source/boot/product/libproduct.a(hi_go_decoder.o)
 .debug_aranges
                0x00000a40       0x20 /home/zyq/share/HI3716STD310/source/boot/product/libproduct.a(hi_go_gdev.o)
 .debug_aranges
                0x00000a60       0x20 /home/zyq/share/HI3716STD310/source/boot/product/libproduct.a(higo_memsurface.o)
 .debug_aranges
                0x00000a80       0x20 /home/zyq/share/HI3716STD310/source/boot/product/libproduct.a(hi_go_surface.o)
 .debug_aranges
                0x00000aa0       0x20 /home/zyq/share/HI3716STD310/source/boot/product/libproduct.a(higo_surface.o)
 .debug_aranges
                0x00000ac0       0x20 /home/zyq/share/HI3716STD310/source/boot/product/libproduct.a(adp_jpeg.o)
 .debug_aranges
                0x00000ae0       0x20 /home/zyq/share/HI3716STD310/source/boot/product/libproduct.a(jpg_decctrl.o)
 .debug_aranges
                0x00000b00       0x20 /home/zyq/share/HI3716STD310/source/boot/product/libproduct.a(jpg_handle.o)
 .debug_aranges
                0x00000b20       0x20 /home/zyq/share/HI3716STD310/source/boot/product/libproduct.a(jpg_hdec.o)
 .debug_aranges
                0x00000b40       0x20 /home/zyq/share/HI3716STD310/source/boot/product/libproduct.a(jpg_parse.o)
 .debug_aranges
                0x00000b60       0x20 /home/zyq/share/HI3716STD310/source/boot/product/libproduct.a(drv_i2c.o)
 .debug_aranges
                0x00000b80       0x20 /home/zyq/share/HI3716STD310/source/boot/product/libproduct.a(drv_gpio.o)
 .debug_aranges
                0x00000ba0       0x20 /home/zyq/share/HI3716STD310/source/boot/product/libproduct.a(boot_pdm.o)
 .debug_aranges
                0x00000bc0       0x20 /home/zyq/share/HI3716STD310/source/boot/product/libproduct.a(hdmi.o)
 .debug_aranges
                0x00000be0       0x20 /home/zyq/share/HI3716STD310/source/boot/product/libproduct.a(txvidp.o)
 .debug_aranges
                0x00000c00       0x20 /home/zyq/share/HI3716STD310/source/boot/product/libproduct.a(infofrm.o)
 .debug_aranges
                0x00000c20       0x20 /home/zyq/share/HI3716STD310/source/boot/product/libproduct.a(hdmitx.o)
 .debug_aranges
                0x00000c40       0x20 /home/zyq/share/HI3716STD310/source/boot/product/libproduct.a(drv_hlviic.o)
 .debug_aranges
                0x00000c60       0x20 /home/zyq/share/HI3716STD310/source/boot/product/libproduct.a(phy.o)
 .debug_aranges
                0x00000c80       0x20 /home/zyq/share/HI3716STD310/source/boot/product/libproduct.a(de.o)
 .debug_aranges
                0x00000ca0       0x20 /home/zyq/share/HI3716STD310/source/boot/product/libproduct.a(hi_keyled_inner.o)
 .debug_aranges
                0x00000cc0       0x20 /home/zyq/share/HI3716STD310/source/boot/product/libproduct.a(cmd_otp.o)
 .debug_aranges
                0x00000ce0       0x20 /home/zyq/share/HI3716STD310/source/boot/product/libproduct.a(otp.o)
 .debug_aranges
                0x00000d00       0x20 /home/zyq/share/HI3716STD310/source/boot/product/libproduct.a(unf_otp.o)
 .debug_aranges
                0x00000d20       0x20 /home/zyq/share/HI3716STD310/source/boot/product/libproduct.a(boot_logo.o)
 .debug_aranges
                0x00000d40       0x20 /home/zyq/share/HI3716STD310/source/boot/product/libproduct.a(boot_adp.o)
 .debug_aranges
                0x00000d60       0x20 /home/zyq/share/HI3716STD310/source/boot/product/libproduct.a(common_api.o)
 .debug_aranges
                0x00000d80       0x20 /home/zyq/share/HI3716STD310/source/boot/product/libproduct.a(drv_grc_adpt.o)
 .debug_aranges
                0x00000da0       0x20 /home/zyq/share/HI3716STD310/source/boot/product/libproduct.a(optm_hifb.o)
 .debug_aranges
                0x00000dc0       0x20 /home/zyq/share/HI3716STD310/source/boot/product/libproduct.a(optm_m_disp.o)
 .debug_aranges
                0x00000de0       0x20 /home/zyq/share/HI3716STD310/source/boot/product/libproduct.a(vo_wrap.o)
 .debug_aranges
                0x00000e00       0x20 /home/zyq/share/HI3716STD310/source/boot/product/libproduct.a(optm_alg_api.o)
 .debug_aranges
                0x00000e20       0x20 /home/zyq/share/HI3716STD310/source/boot/product/libproduct.a(optm_alg.o)
 .debug_aranges
                0x00000e40       0x20 /home/zyq/share/HI3716STD310/source/boot/product/libproduct.a(adp_gfx.o)
 .debug_aranges
                0x00000e60       0x20 /home/zyq/share/HI3716STD310/source/boot/product/libproduct.a(adp_layer.o)
 .debug_aranges
                0x00000e80       0x20 /home/zyq/share/HI3716STD310/source/boot/product/libproduct.a(hi_api_mmz.o)
 .debug_aranges
                0x00000ea0       0x20 /home/zyq/share/HI3716STD310/source/boot/product/libproduct.a(higo_blit.o)
 .debug_aranges
                0x00000ec0       0x20 /home/zyq/share/HI3716STD310/source/boot/product/libproduct.a(higo_io.o)
 .debug_aranges
                0x00000ee0       0x20 /home/zyq/share/HI3716STD310/source/boot/product/libproduct.a(higo_memory.o)
 .debug_aranges
                0x00000f00       0x20 /home/zyq/share/HI3716STD310/source/boot/product/libproduct.a(hi_api_tde.o)
 .debug_aranges
                0x00000f20       0x20 /home/zyq/share/HI3716STD310/source/boot/product/libproduct.a(tde_osictl.o)
 .debug_aranges
                0x00000f40       0x20 /home/zyq/share/HI3716STD310/source/boot/product/libproduct.a(tde_osilist.o)
 .debug_aranges
                0x00000f60       0x20 /home/zyq/share/HI3716STD310/source/boot/product/libproduct.a(tde_osr.o)
 .debug_aranges
                0x00000f80       0x20 /home/zyq/share/HI3716STD310/source/boot/product/libproduct.a(wmalloc.o)
 .debug_aranges
                0x00000fa0       0x20 /home/zyq/share/HI3716STD310/source/boot/product/libproduct.a(jpg_buf.o)
 .debug_aranges
                0x00000fc0       0x20 /home/zyq/share/HI3716STD310/source/boot/product/libproduct.a(jpg_drvapi.o)
 .debug_aranges
                0x00000fe0       0x20 /home/zyq/share/HI3716STD310/source/boot/product/libproduct.a(optm_disp_rwzb.o)
 .debug_aranges
                0x00001000       0x20 /home/zyq/share/HI3716STD310/source/boot/product/libproduct.a(optm_hal.o)
 .debug_aranges
                0x00001020       0x20 /home/zyq/share/HI3716STD310/source/boot/product/libproduct.a(tde_hal.o)
 .debug_aranges
                0x00001040       0x20 board/hi3716mv310/libhi3716mv310.a(board.o)
 .debug_aranges
                0x00001060       0x20 board/hi3716mv310/libhi3716mv310.a(eth_cfg_setup.o)
 .debug_aranges
                0x00001080       0x20 lib/libgeneric.a(crc16.o)
 .debug_aranges
                0x000010a0       0x20 lib/libgeneric.a(crc32.o)
 .debug_aranges
                0x000010c0       0x20 lib/libgeneric.a(display_options.o)
 .debug_aranges
                0x000010e0       0x20 lib/libgeneric.a(div64.o)
 .debug_aranges
                0x00001100       0x20 lib/libgeneric.a(net_utils.o)
 .debug_aranges
                0x00001120       0x20 lib/libgeneric.a(string.o)
 .debug_aranges
                0x00001140       0x20 lib/libgeneric.a(time.o)
 .debug_aranges
                0x00001160       0x20 lib/libgeneric.a(vsprintf.o)
 .debug_aranges
                0x00001180       0x20 lib/libgeneric.a(vsnprintf.o)
 .debug_aranges
                0x000011a0       0x20 lib/libgeneric.a(reserve_mem.o)
 .debug_aranges
                0x000011c0       0x20 lib/libgeneric.a(parse_bootargs.o)
 .debug_aranges
                0x000011e0       0x20 lib/libgeneric.a(match_table.o)
 .debug_aranges
                0x00001200       0x20 lib/libgeneric.a(bootimg.o)
 .debug_aranges
                0x00001220       0x20 arch/arm/cpu/hi3716mv310/libhi3716mv310.a(cpu.o)
 .debug_aranges
                0x00001240       0x20 arch/arm/cpu/hi3716mv310/libhi3716mv310.a(timer.o)
 .debug_aranges
                0x00001260       0x20 arch/arm/lib/libarm.a(mmu.o)
 .debug_aranges
                0x00001280       0x20 arch/arm/lib/libarm.a(bootm.o)
 .debug_aranges
                0x000012a0       0x20 arch/arm/lib/libarm.a(tags.o)
 .debug_aranges
                0x000012c0       0x20 arch/arm/lib/libarm.a(cache.o)
 .debug_aranges
                0x000012e0       0x20 arch/arm/lib/libarm.a(cache-cp15.o)
 .debug_aranges
                0x00001300       0x20 arch/arm/lib/libarm.a(reset.o)
 .debug_aranges
                0x00001320       0x20 arch/arm/lib/libarm.a(process.o)
 .debug_aranges
                0x00001340       0x20 drivers/mtd/nand/libnand.a(hinfc_yaffs.o)
 .debug_aranges
                0x00001360       0x20 drivers/mtd/nand/libnand.a(nand_util.o)
 .debug_aranges
                0x00001380       0x20 drivers/mtd/spi/libspi_flash.a(spi_compatible.o)
 .debug_aranges
                0x000013a0       0x20 drivers/net/hisfv300/libhisfv300.a(net-drv.o)
 .debug_aranges
                0x000013c0       0x20 drivers/net/hisfv300/libhisfv300.a(mii-drv.o)
 .debug_aranges
                0x000013e0       0x20 drivers/net/hisfv300/libhisfv300.a(ctrl.o)
 .debug_aranges
                0x00001400       0x20 drivers/net/hisfv300/libhisfv300.a(glb.o)
 .debug_aranges
                0x00001420       0x20 drivers/net/hisfv300/libhisfv300.a(mac.o)
 .debug_aranges
                0x00001440       0x20 drivers/net/hisfv300/libhisfv300.a(mdio.o)
 .debug_aranges
                0x00001460       0x20 drivers/net/hisfv300/libhisfv300.a(sys.o)
 .debug_aranges
                0x00001480       0x20 drivers/net/hisfv300/libhisfv300.a(phy_fix.o)
 .debug_aranges
                0x000014a0       0x20 common/libcommon.a(flash_part.o)
 .debug_aranges
                0x000014c0       0x20 /home/zyq/share/HI3716STD310/source/boot/fastboot/arch/arm/lib/eabi_compat.o
 .debug_aranges
                0x000014e0       0x20 /opt/hisi-linux/x86-arm/arm-hisiv200-linux/bin/../lib/gcc/arm-hisiv200-linux-gnueabi/4.4.1/libgcc.a(_udivsi3.o)
 .debug_aranges
                0x00001500       0x20 /opt/hisi-linux/x86-arm/arm-hisiv200-linux/bin/../lib/gcc/arm-hisiv200-linux-gnueabi/4.4.1/libgcc.a(_divsi3.o)
 .debug_aranges
                0x00001520       0x20 /opt/hisi-linux/x86-arm/arm-hisiv200-linux/bin/../lib/gcc/arm-hisiv200-linux-gnueabi/4.4.1/libgcc.a(_lshrdi3.o)
 .debug_aranges
                0x00001540       0x20 /opt/hisi-linux/x86-arm/arm-hisiv200-linux/bin/../lib/gcc/arm-hisiv200-linux-gnueabi/4.4.1/libgcc.a(_ashrdi3.o)
 .debug_aranges
                0x00001560       0x20 /opt/hisi-linux/x86-arm/arm-hisiv200-linux/bin/../lib/gcc/arm-hisiv200-linux-gnueabi/4.4.1/libgcc.a(_ashldi3.o)
 .debug_aranges
                0x00001580       0x20 /opt/hisi-linux/x86-arm/arm-hisiv200-linux/bin/../lib/gcc/arm-hisiv200-linux-gnueabi/4.4.1/libgcc.a(_aeabi_uldivmod.o)
 .debug_aranges
                0x000015a0       0x20 /opt/hisi-linux/x86-arm/arm-hisiv200-linux/bin/../lib/gcc/arm-hisiv200-linux-gnueabi/4.4.1/libgcc.a(_dvmd_lnx.o)
 .debug_aranges
                0x000015c0       0x20 /opt/hisi-linux/x86-arm/arm-hisiv200-linux/bin/../lib/gcc/arm-hisiv200-linux-gnueabi/4.4.1/libgcc.a(bpabi.o)
 .debug_aranges
                0x000015e0       0x20 /opt/hisi-linux/x86-arm/arm-hisiv200-linux/bin/../lib/gcc/arm-hisiv200-linux-gnueabi/4.4.1/libgcc.a(_divdi3.o)
 .debug_aranges
                0x00001600       0x20 /opt/hisi-linux/x86-arm/arm-hisiv200-linux/bin/../lib/gcc/arm-hisiv200-linux-gnueabi/4.4.1/libgcc.a(_udivdi3.o)

.debug_loc      0x00000000    0x3f107
 .debug_loc     0x00000000      0x2ed arch/arm/cpu/hi3716mv310/lowlevel_init.o
 .debug_loc     0x000002ed       0x87 arch/arm/cpu/hi3716mv310/chip.o
 .debug_loc     0x00000374      0x296 arch/arm/cpu/hi3716mv310/ddrphy_training.o
 .debug_loc     0x0000060a      0x904 arch/arm/cpu/hi3716mv310/ddr_dataeye_training.o
 .debug_loc     0x00000f0e       0x1f arch/arm/cpu/hi3716mv310/libhi3716mv310.a(hi3716mv310_ddr_training.o)
 .debug_loc     0x00000f2d       0xd2 arch/arm/lib/libarm.a(board.o)
 .debug_loc     0x00000fff      0x214 arch/arm/lib/libarm.a(interrupts.o)
 .debug_loc     0x00001213      0x1a5 arch/arm/lib/libarm.a(ddr_layout.o)
 .debug_loc     0x000013b8       0x79 arch/arm/lib/libarm.a(ddr_size.o)
 .debug_loc     0x00001431      0x1a3 arch/arm/lib/libarm.a(cpu_info.o)
 .debug_loc     0x000015d4      0x73e net/libnet.a(eth.o)
 .debug_loc     0x00001d12      0xacc net/libnet.a(net.o)
 .debug_loc     0x000027de       0xda net/libnet.a(rarp.o)
 .debug_loc     0x000028b8      0x2ea net/libnet.a(tftp.o)
 .debug_loc     0x00002ba2      0x3af net/libnet.a(bootp.o)
 .debug_loc     0x00002f51       0x1f drivers/mtd/nand/libnand.a(nand.o)
 .debug_loc     0x00002f70       0xb7 drivers/mtd/nand/libnand.a(hinfc_init.o)
 .debug_loc     0x00003027     0x26c0 drivers/mtd/nand/libnand.a(nand_base.o)
 .debug_loc     0x000056e7     0x12f9 drivers/mtd/nand/libnand.a(nand_bbt.o)
 .debug_loc     0x000069e0      0x1b3 drivers/mtd/nand/libnand.a(nand_ecc.o)
 .debug_loc     0x00006b93      0xee4 drivers/mtd/nand/libnand.a(hinfc610.o)
 .debug_loc     0x00007a77       0x78 drivers/mtd/nand/libnand.a(hinfc610_gen.o)
 .debug_loc     0x00007aef       0x13 drivers/mtd/nand/libnand.a(hinfc610_read_retry.o)
 .debug_loc     0x00007b02      0x3bf drivers/mtd/nand/libnand.a(hinfc610_ecc_info.o)
 .debug_loc     0x00007ec1      0x13f drivers/mtd/nand/libnand.a(hinfc610_sync.o)
 .debug_loc     0x00008000       0x78 drivers/mtd/nand/libnand.a(hinfc620_gen.o)
 .debug_loc     0x00008078      0x154 drivers/mtd/nand/libnand.a(hinfc610_sync_onfi_23.o)
 .debug_loc     0x000081cc      0x154 drivers/mtd/nand/libnand.a(hinfc610_sync_toggle.o)
 .debug_loc     0x00008320       0x3d drivers/mtd/nand/libnand.a(hinfc610_rw_latch.o)
 .debug_loc     0x0000835d       0x5a drivers/mtd/nand/libnand.a(hinfc_gen.o)
 .debug_loc     0x000083b7      0x18a drivers/mtd/nand/libnand.a(nand_spl_ids.o)
 .debug_loc     0x00008541      0x357 drivers/mtd/nand/libnand.a(hinfc610_read_retry_hynix_bg_cdie.o)
 .debug_loc     0x00008898      0x13c drivers/mtd/nand/libnand.a(hinfc610_read_retry_hynix_bg_bdie.o)
 .debug_loc     0x000089d4      0x341 drivers/mtd/nand/libnand.a(hinfc610_read_retry_hynix_cg_adie.o)
 .debug_loc     0x00008d15       0xc5 drivers/mtd/nand/libnand.a(hinfc610_read_retry_micron.o)
 .debug_loc     0x00008dda      0x14d drivers/mtd/nand/libnand.a(hinfc610_read_retry_samsung.o)
 .debug_loc     0x00008f27      0x1cf drivers/mtd/nand/libnand.a(hinfc610_read_retry_toshiba_24nm.o)
 .debug_loc     0x000090f6      0x258 drivers/mtd/nand/libnand.a(hinfc610_read_retry_toshiba_19nm.o)
 .debug_loc     0x0000934e       0xa0 drivers/serial/libserial.a(serial_pl01x.o)
 .debug_loc     0x000093ee      0x210 common/libcommon.a(bootstrap.o)
 .debug_loc     0x000095fe      0x136 common/libcommon.a(cmd_boot.o)
 .debug_loc     0x00009734      0x637 common/libcommon.a(cmd_bootm.o)
 .debug_loc     0x00009d6b      0x32b common/libcommon.a(cmd_ddr_training.o)
 .debug_loc     0x0000a096       0xc8 common/libcommon.a(cmd_getinfo.o)
 .debug_loc     0x0000a15e       0xa2 common/libcommon.a(cmd_help.o)
 .debug_loc     0x0000a200      0x5b8 common/libcommon.a(cmd_load.o)
 .debug_loc     0x0000a7b8      0xbeb common/libcommon.a(cmd_mem.o)
 .debug_loc     0x0000b3a3      0x8ff common/libcommon.a(cmd_mii.o)
 .debug_loc     0x0000bca2      0xeb7 common/libcommon.a(cmd_nand.o)
 .debug_loc     0x0000cb59      0x2fd common/libcommon.a(cmd_net.o)
 .debug_loc     0x0000ce56      0x763 common/libcommon.a(cmd_nvedit.o)
 .debug_loc     0x0000d5b9       0x6b common/libcommon.a(cmd_version.o)
 .debug_loc     0x0000d624      0xa92 common/libcommon.a(command.o)
 .debug_loc     0x0000e0b6      0x50b common/libcommon.a(console.o)
 .debug_loc     0x0000e5c1     0x11e7 common/libcommon.a(dlmalloc.o)
 .debug_loc     0x0000f7a8      0x248 common/libcommon.a(env_common.o)
 .debug_loc     0x0000f9f0       0xcb common/libcommon.a(env_common_func.o)
 .debug_loc     0x0000fabb      0x161 common/libcommon.a(env_nand.o)
 .debug_loc     0x0000fc1c       0x1f common/libcommon.a(exports.o)
 .debug_loc     0x0000fc3b      0x1c2 common/libcommon.a(hi3716mv310_ddr_training_printf.o)
 .debug_loc     0x0000fdfd      0x7e1 common/libcommon.a(image.o)
 .debug_loc     0x000105de     0x10e3 common/libcommon.a(main.o)
 .debug_loc     0x000116c1      0x65f common/libcommon.a(miiphyutil.o)
 .debug_loc     0x00011d20      0xbb4 common/libcommon.a(nand_logif.o)
 .debug_loc     0x000128d4      0x3ca common/libcommon.a(spiflash_logif.o)
 .debug_loc     0x00012c9e       0xf6 common/libcommon.a(stdio.o)
 .debug_loc     0x00012d94      0x69a common/libcommon.a(xyzModem.o)
 .debug_loc     0x0001342e      0x4a2 /home/zyq/share/HI3716STD310/source/boot/product/libproduct.a(main.o)
 .debug_loc     0x000138d0     0x1af7 /home/zyq/share/HI3716STD310/source/boot/product/libproduct.a(schedule.o)
 .debug_loc     0x000153c7       0xff /home/zyq/share/HI3716STD310/source/boot/product/libproduct.a(boot_debug.o)
 .debug_loc     0x000154c6      0x110 /home/zyq/share/HI3716STD310/source/boot/product/libproduct.a(boot_mem.o)
 .debug_loc     0x000155d6      0x365 /home/zyq/share/HI3716STD310/source/boot/product/libproduct.a(common_str.o)
 .debug_loc     0x0001593b      0x1a9 /home/zyq/share/HI3716STD310/source/boot/product/libproduct.a(drv_osal.o)
 .debug_loc     0x00015ae4      0xc5c /home/zyq/share/HI3716STD310/source/boot/product/libproduct.a(hi_adp_flash.o)
 .debug_loc     0x00016740      0x2df /home/zyq/share/HI3716STD310/source/boot/product/libproduct.a(hi_go_bliter.o)
 .debug_loc     0x00016a1f       0xb7 /home/zyq/share/HI3716STD310/source/boot/product/libproduct.a(hi_go_comm.o)
 .debug_loc     0x00016ad6      0x47f /home/zyq/share/HI3716STD310/source/boot/product/libproduct.a(hi_go_decoder.o)
 .debug_loc     0x00016f55      0x922 /home/zyq/share/HI3716STD310/source/boot/product/libproduct.a(hi_go_gdev.o)
 .debug_loc     0x00017877      0x38a /home/zyq/share/HI3716STD310/source/boot/product/libproduct.a(higo_memsurface.o)
 .debug_loc     0x00017c01      0x32c /home/zyq/share/HI3716STD310/source/boot/product/libproduct.a(hi_go_surface.o)
 .debug_loc     0x00017f2d      0x50d /home/zyq/share/HI3716STD310/source/boot/product/libproduct.a(higo_surface.o)
 .debug_loc     0x0001843a      0x5c7 /home/zyq/share/HI3716STD310/source/boot/product/libproduct.a(adp_jpeg.o)
 .debug_loc     0x00018a01      0xb66 /home/zyq/share/HI3716STD310/source/boot/product/libproduct.a(jpg_decctrl.o)
 .debug_loc     0x00019567      0x128 /home/zyq/share/HI3716STD310/source/boot/product/libproduct.a(jpg_handle.o)
 .debug_loc     0x0001968f      0xe94 /home/zyq/share/HI3716STD310/source/boot/product/libproduct.a(jpg_hdec.o)
 .debug_loc     0x0001a523     0x172d /home/zyq/share/HI3716STD310/source/boot/product/libproduct.a(jpg_parse.o)
 .debug_loc     0x0001bc50      0x95f /home/zyq/share/HI3716STD310/source/boot/product/libproduct.a(drv_i2c.o)
 .debug_loc     0x0001c5af      0x4f0 /home/zyq/share/HI3716STD310/source/boot/product/libproduct.a(drv_gpio.o)
 .debug_loc     0x0001ca9f      0xef1 /home/zyq/share/HI3716STD310/source/boot/product/libproduct.a(boot_pdm.o)
 .debug_loc     0x0001d990      0x35d /home/zyq/share/HI3716STD310/source/boot/product/libproduct.a(hdmi.o)
 .debug_loc     0x0001dced      0x23b /home/zyq/share/HI3716STD310/source/boot/product/libproduct.a(txvidp.o)
 .debug_loc     0x0001df28      0x299 /home/zyq/share/HI3716STD310/source/boot/product/libproduct.a(infofrm.o)
 .debug_loc     0x0001e1c1      0x269 /home/zyq/share/HI3716STD310/source/boot/product/libproduct.a(hdmitx.o)
 .debug_loc     0x0001e42a      0x24b /home/zyq/share/HI3716STD310/source/boot/product/libproduct.a(drv_hlviic.o)
 .debug_loc     0x0001e675      0x3d8 /home/zyq/share/HI3716STD310/source/boot/product/libproduct.a(phy.o)
 .debug_loc     0x0001ea4d       0x66 /home/zyq/share/HI3716STD310/source/boot/product/libproduct.a(de.o)
 .debug_loc     0x0001eab3      0x43b /home/zyq/share/HI3716STD310/source/boot/product/libproduct.a(hi_keyled_inner.o)
 .debug_loc     0x0001eeee      0x2cf /home/zyq/share/HI3716STD310/source/boot/product/libproduct.a(cmd_otp.o)
 .debug_loc     0x0001f1bd      0x3d9 /home/zyq/share/HI3716STD310/source/boot/product/libproduct.a(otp.o)
 .debug_loc     0x0001f596      0x370 /home/zyq/share/HI3716STD310/source/boot/product/libproduct.a(unf_otp.o)
 .debug_loc     0x0001f906       0xb6 /home/zyq/share/HI3716STD310/source/boot/product/libproduct.a(boot_logo.o)
 .debug_loc     0x0001f9bc      0x13e /home/zyq/share/HI3716STD310/source/boot/product/libproduct.a(boot_adp.o)
 .debug_loc     0x0001fafa      0x19c /home/zyq/share/HI3716STD310/source/boot/product/libproduct.a(common_api.o)
 .debug_loc     0x0001fc96      0x598 /home/zyq/share/HI3716STD310/source/boot/product/libproduct.a(drv_grc_adpt.o)
 .debug_loc     0x0002022e      0xfb3 /home/zyq/share/HI3716STD310/source/boot/product/libproduct.a(optm_hifb.o)
 .debug_loc     0x000211e1     0x2aff /home/zyq/share/HI3716STD310/source/boot/product/libproduct.a(optm_m_disp.o)
 .debug_loc     0x00023ce0      0x6e4 /home/zyq/share/HI3716STD310/source/boot/product/libproduct.a(vo_wrap.o)
 .debug_loc     0x000243c4     0x2276 /home/zyq/share/HI3716STD310/source/boot/product/libproduct.a(optm_alg_api.o)
 .debug_loc     0x0002663a      0xee6 /home/zyq/share/HI3716STD310/source/boot/product/libproduct.a(optm_alg.o)
 .debug_loc     0x00027520      0xa18 /home/zyq/share/HI3716STD310/source/boot/product/libproduct.a(adp_gfx.o)
 .debug_loc     0x00027f38      0x13a /home/zyq/share/HI3716STD310/source/boot/product/libproduct.a(adp_layer.o)
 .debug_loc     0x00028072       0xdb /home/zyq/share/HI3716STD310/source/boot/product/libproduct.a(hi_api_mmz.o)
 .debug_loc     0x0002814d      0x13c /home/zyq/share/HI3716STD310/source/boot/product/libproduct.a(higo_blit.o)
 .debug_loc     0x00028289      0x565 /home/zyq/share/HI3716STD310/source/boot/product/libproduct.a(higo_io.o)
 .debug_loc     0x000287ee      0x238 /home/zyq/share/HI3716STD310/source/boot/product/libproduct.a(higo_memory.o)
 .debug_loc     0x00028a26      0x343 /home/zyq/share/HI3716STD310/source/boot/product/libproduct.a(hi_api_tde.o)
 .debug_loc     0x00028d69     0x33f0 /home/zyq/share/HI3716STD310/source/boot/product/libproduct.a(tde_osictl.o)
 .debug_loc     0x0002c159      0x644 /home/zyq/share/HI3716STD310/source/boot/product/libproduct.a(tde_osilist.o)
 .debug_loc     0x0002c79d       0x3e /home/zyq/share/HI3716STD310/source/boot/product/libproduct.a(tde_osr.o)
 .debug_loc     0x0002c7db      0x289 /home/zyq/share/HI3716STD310/source/boot/product/libproduct.a(wmalloc.o)
 .debug_loc     0x0002ca64      0x289 /home/zyq/share/HI3716STD310/source/boot/product/libproduct.a(jpg_buf.o)
 .debug_loc     0x0002cced       0x8b /home/zyq/share/HI3716STD310/source/boot/product/libproduct.a(jpg_drvapi.o)
 .debug_loc     0x0002cd78       0x6b /home/zyq/share/HI3716STD310/source/boot/product/libproduct.a(optm_disp_rwzb.o)
 .debug_loc     0x0002cde3     0xa34f /home/zyq/share/HI3716STD310/source/boot/product/libproduct.a(optm_hal.o)
 .debug_loc     0x00037132      0xf7f /home/zyq/share/HI3716STD310/source/boot/product/libproduct.a(tde_hal.o)
 .debug_loc     0x000380b1       0x70 board/hi3716mv310/libhi3716mv310.a(board.o)
 .debug_loc     0x00038121      0x549 board/hi3716mv310/libhi3716mv310.a(eth_cfg_setup.o)
 .debug_loc     0x0003866a       0x5b lib/libgeneric.a(crc16.o)
 .debug_loc     0x000386c5      0x16f lib/libgeneric.a(crc32.o)
 .debug_loc     0x00038834      0x2b0 lib/libgeneric.a(display_options.o)
 .debug_loc     0x00038ae4       0xbb lib/libgeneric.a(div64.o)
 .debug_loc     0x00038b9f       0x84 lib/libgeneric.a(net_utils.o)
 .debug_loc     0x00038c23      0x6b5 lib/libgeneric.a(string.o)
 .debug_loc     0x000392d8       0x7a lib/libgeneric.a(time.o)
 .debug_loc     0x00039352      0xc97 lib/libgeneric.a(vsprintf.o)
 .debug_loc     0x00039fe9      0xa55 lib/libgeneric.a(vsnprintf.o)
 .debug_loc     0x0003aa3e      0x146 lib/libgeneric.a(reserve_mem.o)
 .debug_loc     0x0003ab84      0x355 lib/libgeneric.a(parse_bootargs.o)
 .debug_loc     0x0003aed9      0x149 lib/libgeneric.a(match_table.o)
 .debug_loc     0x0003b022      0x1b3 lib/libgeneric.a(bootimg.o)
 .debug_loc     0x0003b1d5       0x81 arch/arm/cpu/hi3716mv310/libhi3716mv310.a(cpu.o)
 .debug_loc     0x0003b256      0x261 arch/arm/cpu/hi3716mv310/libhi3716mv310.a(timer.o)
 .debug_loc     0x0003b4b7      0x157 arch/arm/lib/libarm.a(bootm.o)
 .debug_loc     0x0003b60e       0xea arch/arm/lib/libarm.a(tags.o)
 .debug_loc     0x0003b6f8       0xed arch/arm/lib/libarm.a(cache-cp15.o)
 .debug_loc     0x0003b7e5       0x6b arch/arm/lib/libarm.a(reset.o)
 .debug_loc     0x0003b850       0x3d arch/arm/lib/libarm.a(process.o)
 .debug_loc     0x0003b88d       0x8f drivers/mtd/nand/libnand.a(hinfc_yaffs.o)
 .debug_loc     0x0003b91c      0xd89 drivers/mtd/nand/libnand.a(nand_util.o)
 .debug_loc     0x0003c6a5       0x8a drivers/mtd/spi/libspi_flash.a(spi_compatible.o)
 .debug_loc     0x0003c72f      0x5c7 drivers/net/hisfv300/libhisfv300.a(net-drv.o)
 .debug_loc     0x0003ccf6      0x230 drivers/net/hisfv300/libhisfv300.a(mii-drv.o)
 .debug_loc     0x0003cf26      0x143 drivers/net/hisfv300/libhisfv300.a(ctrl.o)
 .debug_loc     0x0003d069      0x193 drivers/net/hisfv300/libhisfv300.a(glb.o)
 .debug_loc     0x0003d1fc      0x282 drivers/net/hisfv300/libhisfv300.a(mac.o)
 .debug_loc     0x0003d47e      0x218 drivers/net/hisfv300/libhisfv300.a(mdio.o)
 .debug_loc     0x0003d696      0x158 drivers/net/hisfv300/libhisfv300.a(sys.o)
 .debug_loc     0x0003d7ee      0x213 drivers/net/hisfv300/libhisfv300.a(phy_fix.o)
 .debug_loc     0x0003da01      0x65b common/libcommon.a(flash_part.o)
 .debug_loc     0x0003e05c       0x3d /home/zyq/share/HI3716STD310/source/boot/fastboot/arch/arm/lib/eabi_compat.o
 .debug_loc     0x0003e099      0x11e /opt/hisi-linux/x86-arm/arm-hisiv200-linux/bin/../lib/gcc/arm-hisiv200-linux-gnueabi/4.4.1/libgcc.a(bpabi.o)
 .debug_loc     0x0003e1b7      0x7ae /opt/hisi-linux/x86-arm/arm-hisiv200-linux/bin/../lib/gcc/arm-hisiv200-linux-gnueabi/4.4.1/libgcc.a(_divdi3.o)
 .debug_loc     0x0003e965      0x7a2 /opt/hisi-linux/x86-arm/arm-hisiv200-linux/bin/../lib/gcc/arm-hisiv200-linux-gnueabi/4.4.1/libgcc.a(_udivdi3.o)

.debug_pubnames
                0x00000000     0xa7db
 .debug_pubnames
                0x00000000       0x3f arch/arm/cpu/hi3716mv310/lowlevel_init.o
 .debug_pubnames
                0x0000003f       0x49 arch/arm/cpu/hi3716mv310/chip.o
 .debug_pubnames
                0x00000088       0x29 arch/arm/cpu/hi3716mv310/ddrphy_training.o
 .debug_pubnames
                0x000000b1       0x41 arch/arm/cpu/hi3716mv310/ddr_dataeye_training.o
 .debug_pubnames
                0x000000f2       0x2f arch/arm/cpu/hi3716mv310/libhi3716mv310.a(hi3716mv310_ddr_training.o)
 .debug_pubnames
                0x00000121       0x8d arch/arm/lib/libarm.a(board.o)
 .debug_pubnames
                0x000001ae       0xdf arch/arm/lib/libarm.a(interrupts.o)
 .debug_pubnames
                0x0000028d       0x4d arch/arm/lib/libarm.a(ddr_layout.o)
 .debug_pubnames
                0x000002da       0x23 arch/arm/lib/libarm.a(ddr_size.o)
 .debug_pubnames
                0x000002fd       0xc6 arch/arm/lib/libarm.a(cpu_info.o)
 .debug_pubnames
                0x000003c3      0x188 net/libnet.a(eth.o)
 .debug_pubnames
                0x0000054b      0x40e net/libnet.a(net.o)
 .debug_pubnames
                0x00000959       0x2e net/libnet.a(rarp.o)
 .debug_pubnames
                0x00000987       0x84 net/libnet.a(tftp.o)
 .debug_pubnames
                0x00000a0b       0x3c net/libnet.a(bootp.o)
 .debug_pubnames
                0x00000a47       0x4a drivers/mtd/nand/libnand.a(nand.o)
 .debug_pubnames
                0x00000a91       0x53 drivers/mtd/nand/libnand.a(hinfc_init.o)
 .debug_pubnames
                0x00000ae4      0x11f drivers/mtd/nand/libnand.a(nand_base.o)
 .debug_pubnames
                0x00000c03       0x60 drivers/mtd/nand/libnand.a(nand_bbt.o)
 .debug_pubnames
                0x00000c63       0x3f drivers/mtd/nand/libnand.a(nand_ecc.o)
 .debug_pubnames
                0x00000ca2       0x38 drivers/mtd/nand/libnand.a(nand_ids.o)
 .debug_pubnames
                0x00000cda      0x110 drivers/mtd/nand/libnand.a(hinfc610.o)
 .debug_pubnames
                0x00000dea       0x7c drivers/mtd/nand/libnand.a(hinfc610_gen.o)
 .debug_pubnames
                0x00000e66       0x2f drivers/mtd/nand/libnand.a(hinfc610_read_retry.o)
 .debug_pubnames
                0x00000e95       0x2d drivers/mtd/nand/libnand.a(hinfc610_ecc_info.o)
 .debug_pubnames
                0x00000ec2       0x2d drivers/mtd/nand/libnand.a(hinfc610_sync.o)
 .debug_pubnames
                0x00000eef       0x7c drivers/mtd/nand/libnand.a(hinfc620_gen.o)
 .debug_pubnames
                0x00000f6b       0x46 drivers/mtd/nand/libnand.a(hinfc610_sync_onfi_23.o)
 .debug_pubnames
                0x00000fb1       0x2e drivers/mtd/nand/libnand.a(hinfc610_sync_toggle.o)
 .debug_pubnames
                0x00000fdf       0x29 drivers/mtd/nand/libnand.a(hinfc610_rw_latch.o)
 .debug_pubnames
                0x00001008       0x48 drivers/mtd/nand/libnand.a(hinfc610_rw_latch_hi3716mv310.o)
 .debug_pubnames
                0x00001050       0x80 drivers/mtd/nand/libnand.a(hinfc_gen.o)
 .debug_pubnames
                0x000010d0       0x58 drivers/mtd/nand/libnand.a(nand_spl_ids.o)
 .debug_pubnames
                0x00001128       0x38 drivers/mtd/nand/libnand.a(hinfc610_read_retry_hynix_bg_cdie.o)
 .debug_pubnames
                0x00001160       0x38 drivers/mtd/nand/libnand.a(hinfc610_read_retry_hynix_bg_bdie.o)
 .debug_pubnames
                0x00001198       0x38 drivers/mtd/nand/libnand.a(hinfc610_read_retry_hynix_cg_adie.o)
 .debug_pubnames
                0x000011d0       0x31 drivers/mtd/nand/libnand.a(hinfc610_read_retry_micron.o)
 .debug_pubnames
                0x00001201       0x32 drivers/mtd/nand/libnand.a(hinfc610_read_retry_samsung.o)
 .debug_pubnames
                0x00001233       0x37 drivers/mtd/nand/libnand.a(hinfc610_read_retry_toshiba_24nm.o)
 .debug_pubnames
                0x0000126a       0x37 drivers/mtd/nand/libnand.a(hinfc610_read_retry_toshiba_19nm.o)
 .debug_pubnames
                0x000012a1       0x88 drivers/serial/libserial.a(serial_pl01x.o)
 .debug_pubnames
                0x00001329       0x9c common/libcommon.a(bootstrap.o)
 .debug_pubnames
                0x000013c5       0x56 common/libcommon.a(cmd_boot.o)
 .debug_pubnames
                0x0000141b       0x87 common/libcommon.a(cmd_bootm.o)
 .debug_pubnames
                0x000014a2       0x63 common/libcommon.a(cmd_ddr_training.o)
 .debug_pubnames
                0x00001505       0x3a common/libcommon.a(cmd_getinfo.o)
 .debug_pubnames
                0x0000153f       0x53 common/libcommon.a(cmd_help.o)
 .debug_pubnames
                0x00001592      0x1b3 common/libcommon.a(cmd_load.o)
 .debug_pubnames
                0x00001745      0x1d1 common/libcommon.a(cmd_mem.o)
 .debug_pubnames
                0x00001916      0x13e common/libcommon.a(cmd_mii.o)
 .debug_pubnames
                0x00001a54       0x5b common/libcommon.a(cmd_nand.o)
 .debug_pubnames
                0x00001aaf       0xa1 common/libcommon.a(cmd_net.o)
 .debug_pubnames
                0x00001b50       0xdf common/libcommon.a(cmd_nvedit.o)
 .debug_pubnames
                0x00001c2f       0x3a common/libcommon.a(cmd_version.o)
 .debug_pubnames
                0x00001c69       0xa2 common/libcommon.a(command.o)
 .debug_pubnames
                0x00001d0b      0x147 common/libcommon.a(console.o)
 .debug_pubnames
                0x00001e52       0xfd common/libcommon.a(dlmalloc.o)
 .debug_pubnames
                0x00001f4f       0xb4 common/libcommon.a(env_common.o)
 .debug_pubnames
                0x00002003       0x75 common/libcommon.a(env_common_func.o)
 .debug_pubnames
                0x00002078       0x2f common/libcommon.a(env_nand.o)
 .debug_pubnames
                0x000020a7       0x3c common/libcommon.a(exports.o)
 .debug_pubnames
                0x000020e3       0x36 common/libcommon.a(hi3716mv310_ddr_training_printf.o)
 .debug_pubnames
                0x00002119      0x22c common/libcommon.a(image.o)
 .debug_pubnames
                0x00002345       0xc2 common/libcommon.a(main.o)
 .debug_pubnames
                0x00002407      0x10d common/libcommon.a(miiphyutil.o)
 .debug_pubnames
                0x00002514       0x79 common/libcommon.a(nand_logif.o)
 .debug_pubnames
                0x0000258d       0x8d common/libcommon.a(spiflash_logif.o)
 .debug_pubnames
                0x0000261a       0x96 common/libcommon.a(stdio.o)
 .debug_pubnames
                0x000026b0       0xef common/libcommon.a(xyzModem.o)
 .debug_pubnames
                0x0000279f       0xb3 /home/zyq/share/HI3716STD310/source/boot/product/libproduct.a(main.o)
 .debug_pubnames
                0x00002852       0x5d /home/zyq/share/HI3716STD310/source/boot/product/libproduct.a(schedule.o)
 .debug_pubnames
                0x000028af       0x5d /home/zyq/share/HI3716STD310/source/boot/product/libproduct.a(boot_debug.o)
 .debug_pubnames
                0x0000290c       0x84 /home/zyq/share/HI3716STD310/source/boot/product/libproduct.a(boot_mem.o)
 .debug_pubnames
                0x00002990       0x77 /home/zyq/share/HI3716STD310/source/boot/product/libproduct.a(common_str.o)
 .debug_pubnames
                0x00002a07       0x79 /home/zyq/share/HI3716STD310/source/boot/product/libproduct.a(drv_osal.o)
 .debug_pubnames
                0x00002a80      0x138 /home/zyq/share/HI3716STD310/source/boot/product/libproduct.a(hi_adp_flash.o)
 .debug_pubnames
                0x00002bb8       0x5e /home/zyq/share/HI3716STD310/source/boot/product/libproduct.a(hi_go_bliter.o)
 .debug_pubnames
                0x00002c16       0x5a /home/zyq/share/HI3716STD310/source/boot/product/libproduct.a(hi_go_comm.o)
 .debug_pubnames
                0x00002c70       0x84 /home/zyq/share/HI3716STD310/source/boot/product/libproduct.a(hi_go_decoder.o)
 .debug_pubnames
                0x00002cf4      0x21b /home/zyq/share/HI3716STD310/source/boot/product/libproduct.a(hi_go_gdev.o)
 .debug_pubnames
                0x00002f0f       0x88 /home/zyq/share/HI3716STD310/source/boot/product/libproduct.a(higo_memsurface.o)
 .debug_pubnames
                0x00002f97       0xb8 /home/zyq/share/HI3716STD310/source/boot/product/libproduct.a(hi_go_surface.o)
 .debug_pubnames
                0x0000304f      0x1e5 /home/zyq/share/HI3716STD310/source/boot/product/libproduct.a(higo_surface.o)
 .debug_pubnames
                0x00003234       0xef /home/zyq/share/HI3716STD310/source/boot/product/libproduct.a(adp_jpeg.o)
 .debug_pubnames
                0x00003323       0xac /home/zyq/share/HI3716STD310/source/boot/product/libproduct.a(jpg_decctrl.o)
 .debug_pubnames
                0x000033cf       0x56 /home/zyq/share/HI3716STD310/source/boot/product/libproduct.a(jpg_handle.o)
 .debug_pubnames
                0x00003425       0xea /home/zyq/share/HI3716STD310/source/boot/product/libproduct.a(jpg_hdec.o)
 .debug_pubnames
                0x0000350f       0xcf /home/zyq/share/HI3716STD310/source/boot/product/libproduct.a(jpg_parse.o)
 .debug_pubnames
                0x000035de       0xda /home/zyq/share/HI3716STD310/source/boot/product/libproduct.a(drv_i2c.o)
 .debug_pubnames
                0x000036b8       0xcc /home/zyq/share/HI3716STD310/source/boot/product/libproduct.a(drv_gpio.o)
 .debug_pubnames
                0x00003784      0x1d7 /home/zyq/share/HI3716STD310/source/boot/product/libproduct.a(boot_pdm.o)
 .debug_pubnames
                0x0000395b      0x151 /home/zyq/share/HI3716STD310/source/boot/product/libproduct.a(hdmi.o)
 .debug_pubnames
                0x00003aac       0x8e /home/zyq/share/HI3716STD310/source/boot/product/libproduct.a(txvidp.o)
 .debug_pubnames
                0x00003b3a       0x67 /home/zyq/share/HI3716STD310/source/boot/product/libproduct.a(infofrm.o)
 .debug_pubnames
                0x00003ba1      0x100 /home/zyq/share/HI3716STD310/source/boot/product/libproduct.a(hdmitx.o)
 .debug_pubnames
                0x00003ca1       0x58 /home/zyq/share/HI3716STD310/source/boot/product/libproduct.a(drv_hlviic.o)
 .debug_pubnames
                0x00003cf9       0xad /home/zyq/share/HI3716STD310/source/boot/product/libproduct.a(txvptbl.o)
 .debug_pubnames
                0x00003da6      0x12d /home/zyq/share/HI3716STD310/source/boot/product/libproduct.a(phy.o)
 .debug_pubnames
                0x00003ed3       0x23 /home/zyq/share/HI3716STD310/source/boot/product/libproduct.a(de.o)
 .debug_pubnames
                0x00003ef6      0x1aa /home/zyq/share/HI3716STD310/source/boot/product/libproduct.a(hi_keyled_inner.o)
 .debug_pubnames
                0x000040a0      0x17f /home/zyq/share/HI3716STD310/source/boot/product/libproduct.a(cmd_otp.o)
 .debug_pubnames
                0x0000421f      0x120 /home/zyq/share/HI3716STD310/source/boot/product/libproduct.a(otp.o)
 .debug_pubnames
                0x0000433f      0x12e /home/zyq/share/HI3716STD310/source/boot/product/libproduct.a(unf_otp.o)
 .debug_pubnames
                0x0000446d       0x25 /home/zyq/share/HI3716STD310/source/boot/product/libproduct.a(boot_logo.o)
 .debug_pubnames
                0x00004492       0x3b /home/zyq/share/HI3716STD310/source/boot/product/libproduct.a(boot_adp.o)
 .debug_pubnames
                0x000044cd       0x30 /home/zyq/share/HI3716STD310/source/boot/product/libproduct.a(common_api.o)
 .debug_pubnames
                0x000044fd       0x56 /home/zyq/share/HI3716STD310/source/boot/product/libproduct.a(drv_reg_common.o)
 .debug_pubnames
                0x00004553      0x1e8 /home/zyq/share/HI3716STD310/source/boot/product/libproduct.a(drv_grc_adpt.o)
 .debug_pubnames
                0x0000473b      0x436 /home/zyq/share/HI3716STD310/source/boot/product/libproduct.a(optm_hifb.o)
 .debug_pubnames
                0x00004b71      0xa4f /home/zyq/share/HI3716STD310/source/boot/product/libproduct.a(optm_m_disp.o)
 .debug_pubnames
                0x000055c0      0x2f4 /home/zyq/share/HI3716STD310/source/boot/product/libproduct.a(vo_wrap.o)
 .debug_pubnames
                0x000058b4      0x76b /home/zyq/share/HI3716STD310/source/boot/product/libproduct.a(optm_alg_api.o)
 .debug_pubnames
                0x0000601f      0xd93 /home/zyq/share/HI3716STD310/source/boot/product/libproduct.a(optm_alg.o)
 .debug_pubnames
                0x00006db2      0x111 /home/zyq/share/HI3716STD310/source/boot/product/libproduct.a(adp_gfx.o)
 .debug_pubnames
                0x00006ec3       0x95 /home/zyq/share/HI3716STD310/source/boot/product/libproduct.a(adp_layer.o)
 .debug_pubnames
                0x00006f58       0x53 /home/zyq/share/HI3716STD310/source/boot/product/libproduct.a(hi_api_mmz.o)
 .debug_pubnames
                0x00006fab       0x4d /home/zyq/share/HI3716STD310/source/boot/product/libproduct.a(higo_blit.o)
 .debug_pubnames
                0x00006ff8       0xad /home/zyq/share/HI3716STD310/source/boot/product/libproduct.a(higo_io.o)
 .debug_pubnames
                0x000070a5       0x5c /home/zyq/share/HI3716STD310/source/boot/product/libproduct.a(higo_memory.o)
 .debug_pubnames
                0x00007101       0xe0 /home/zyq/share/HI3716STD310/source/boot/product/libproduct.a(hi_api_tde.o)
 .debug_pubnames
                0x000071e1       0xc0 /home/zyq/share/HI3716STD310/source/boot/product/libproduct.a(tde_osictl.o)
 .debug_pubnames
                0x000072a1       0xc7 /home/zyq/share/HI3716STD310/source/boot/product/libproduct.a(tde_osilist.o)
 .debug_pubnames
                0x00007368       0x36 /home/zyq/share/HI3716STD310/source/boot/product/libproduct.a(tde_osr.o)
 .debug_pubnames
                0x0000739e       0x9a /home/zyq/share/HI3716STD310/source/boot/product/libproduct.a(wmalloc.o)
 .debug_pubnames
                0x00007438      0x13b /home/zyq/share/HI3716STD310/source/boot/product/libproduct.a(jpg_buf.o)
 .debug_pubnames
                0x00007573       0x55 /home/zyq/share/HI3716STD310/source/boot/product/libproduct.a(jpg_drvapi.o)
 .debug_pubnames
                0x000075c8       0x2c /home/zyq/share/HI3716STD310/source/boot/product/libproduct.a(vmtables.o)
 .debug_pubnames
                0x000075f4       0xbe /home/zyq/share/HI3716STD310/source/boot/product/libproduct.a(optm_disp_rwzb.o)
 .debug_pubnames
                0x000076b2     0x1ee3 /home/zyq/share/HI3716STD310/source/boot/product/libproduct.a(optm_hal.o)
 .debug_pubnames
                0x00009595      0x322 /home/zyq/share/HI3716STD310/source/boot/product/libproduct.a(tde_hal.o)
 .debug_pubnames
                0x000098b7       0x52 board/hi3716mv310/libhi3716mv310.a(board.o)
 .debug_pubnames
                0x00009909      0x10b board/hi3716mv310/libhi3716mv310.a(eth_cfg_setup.o)
 .debug_pubnames
                0x00009a14       0x20 lib/libgeneric.a(crc16.o)
 .debug_pubnames
                0x00009a34       0x3b lib/libgeneric.a(crc32.o)
 .debug_pubnames
                0x00009a6f       0x1d lib/libgeneric.a(ctype.o)
 .debug_pubnames
                0x00009a8c       0x53 lib/libgeneric.a(display_options.o)
 .debug_pubnames
                0x00009adf       0x21 lib/libgeneric.a(div64.o)
 .debug_pubnames
                0x00009b00       0x23 lib/libgeneric.a(net_utils.o)
 .debug_pubnames
                0x00009b23      0x130 lib/libgeneric.a(string.o)
 .debug_pubnames
                0x00009c53       0x28 lib/libgeneric.a(time.o)
 .debug_pubnames
                0x00009c7b       0x87 lib/libgeneric.a(vsprintf.o)
 .debug_pubnames
                0x00009d02       0x41 lib/libgeneric.a(vsnprintf.o)
 .debug_pubnames
                0x00009d43       0xd3 lib/libgeneric.a(reserve_mem.o)
 .debug_pubnames
                0x00009e16       0x5b lib/libgeneric.a(parse_bootargs.o)
 .debug_pubnames
                0x00009e71       0x46 lib/libgeneric.a(match_table.o)
 .debug_pubnames
                0x00009eb7       0x69 lib/libgeneric.a(bootimg.o)
 .debug_pubnames
                0x00009f20       0x38 arch/arm/cpu/hi3716mv310/libhi3716mv310.a(cpu.o)
 .debug_pubnames
                0x00009f58       0xe5 arch/arm/cpu/hi3716mv310/libhi3716mv310.a(timer.o)
 .debug_pubnames
                0x0000a03d       0x2c arch/arm/lib/libarm.a(bootm.o)
 .debug_pubnames
                0x0000a069       0x3c arch/arm/lib/libarm.a(tags.o)
 .debug_pubnames
                0x0000a0a5       0x22 arch/arm/lib/libarm.a(cache.o)
 .debug_pubnames
                0x0000a0c7       0x44 arch/arm/lib/libarm.a(cache-cp15.o)
 .debug_pubnames
                0x0000a10b       0x1f arch/arm/lib/libarm.a(reset.o)
 .debug_pubnames
                0x0000a12a       0x33 arch/arm/lib/libarm.a(process.o)
 .debug_pubnames
                0x0000a15d       0x22 drivers/mtd/nand/libnand.a(hinfc_yaffs.o)
 .debug_pubnames
                0x0000a17f       0xa2 drivers/mtd/nand/libnand.a(nand_util.o)
 .debug_pubnames
                0x0000a221       0x4f drivers/mtd/spi/libspi_flash.a(spi_compatible.o)
 .debug_pubnames
                0x0000a270       0xbf drivers/net/hisfv300/libhisfv300.a(net-drv.o)
 .debug_pubnames
                0x0000a32f       0x90 drivers/net/hisfv300/libhisfv300.a(mii-drv.o)
 .debug_pubnames
                0x0000a3bf       0xa7 drivers/net/hisfv300/libhisfv300.a(ctrl.o)
 .debug_pubnames
                0x0000a466       0x2e drivers/net/hisfv300/libhisfv300.a(glb.o)
 .debug_pubnames
                0x0000a494       0xec drivers/net/hisfv300/libhisfv300.a(mac.o)
 .debug_pubnames
                0x0000a580       0x78 drivers/net/hisfv300/libhisfv300.a(mdio.o)
 .debug_pubnames
                0x0000a5f8       0x64 drivers/net/hisfv300/libhisfv300.a(sys.o)
 .debug_pubnames
                0x0000a65c       0x73 drivers/net/hisfv300/libhisfv300.a(phy_fix.o)
 .debug_pubnames
                0x0000a6cf       0x51 common/libcommon.a(flash_part.o)
 .debug_pubnames
                0x0000a720       0x37 /home/zyq/share/HI3716STD310/source/boot/fastboot/arch/arm/lib/eabi_compat.o
 .debug_pubnames
                0x0000a757       0x45 /opt/hisi-linux/x86-arm/arm-hisiv200-linux/bin/../lib/gcc/arm-hisiv200-linux-gnueabi/4.4.1/libgcc.a(bpabi.o)
 .debug_pubnames
                0x0000a79c       0x1f /opt/hisi-linux/x86-arm/arm-hisiv200-linux/bin/../lib/gcc/arm-hisiv200-linux-gnueabi/4.4.1/libgcc.a(_divdi3.o)
 .debug_pubnames
                0x0000a7bb       0x20 /opt/hisi-linux/x86-arm/arm-hisiv200-linux/bin/../lib/gcc/arm-hisiv200-linux-gnueabi/4.4.1/libgcc.a(_udivdi3.o)

.debug_str      0x00000000    0x28706
 .debug_str     0x00000000      0x194 arch/arm/cpu/hi3716mv310/lowlevel_init.o
                                0x1c7 (size before relaxing)
 .debug_str     0x00000194       0x51 arch/arm/cpu/hi3716mv310/chip.o
                                 0xdd (size before relaxing)
 .debug_str     0x000001e5       0xe3 arch/arm/cpu/hi3716mv310/ddrphy_training.o
                                0x14e (size before relaxing)
 .debug_str     0x000002c8      0x34b arch/arm/cpu/hi3716mv310/ddr_dataeye_training.o
                                0x422 (size before relaxing)
 .debug_str     0x00000613       0x55 arch/arm/cpu/hi3716mv310/libhi3716mv310.a(hi3716mv310_ddr_training.o)
                                0x11b (size before relaxing)
 .debug_str     0x00000668      0x1dc arch/arm/lib/libarm.a(board.o)
                                0x2a2 (size before relaxing)
 .debug_str     0x00000844       0xcc arch/arm/lib/libarm.a(interrupts.o)
                                0x1ab (size before relaxing)
 .debug_str     0x00000910       0x88 arch/arm/lib/libarm.a(ddr_layout.o)
                                0x17f (size before relaxing)
 .debug_str     0x00000998       0x42 arch/arm/lib/libarm.a(ddr_size.o)
                                0x11f (size before relaxing)
 .debug_str     0x000009da       0xf5 arch/arm/lib/libarm.a(cpu_info.o)
                                0x228 (size before relaxing)
 .debug_str     0x00000acf      0x29a net/libnet.a(eth.o)
                                0x43c (size before relaxing)
 .debug_str     0x00000d69      0x610 net/libnet.a(net.o)
                                0x851 (size before relaxing)
 .debug_str     0x00001379       0x4c net/libnet.a(rarp.o)
                                0x1a2 (size before relaxing)
 .debug_str     0x000013c5      0x276 net/libnet.a(tftp.o)
                                0x41c (size before relaxing)
 .debug_str     0x0000163b      0x167 net/libnet.a(bootp.o)
                                0x3db (size before relaxing)
 .debug_str     0x000017a2      0x521 drivers/mtd/nand/libnand.a(nand.o)
                                0x87e (size before relaxing)
 .debug_str     0x00001cc3       0x45 drivers/mtd/nand/libnand.a(hinfc_init.o)
                                0x7fc (size before relaxing)
 .debug_str     0x00001d08      0x7bd drivers/mtd/nand/libnand.a(nand_base.o)
                               0x1003 (size before relaxing)
 .debug_str     0x000024c5      0x287 drivers/mtd/nand/libnand.a(nand_bbt.o)
                                0xa3d (size before relaxing)
 .debug_str     0x0000274c       0x8c drivers/mtd/nand/libnand.a(nand_ecc.o)
                                0x50d (size before relaxing)
 .debug_str     0x000027d8        0xb drivers/mtd/nand/libnand.a(nand_ids.o)
                                0x14c (size before relaxing)
 .debug_str     0x000027e3      0x870 drivers/mtd/nand/libnand.a(hinfc610.o)
                               0x1243 (size before relaxing)
 .debug_str     0x00003053       0xf5 drivers/mtd/nand/libnand.a(hinfc610_gen.o)
                                0x2e0 (size before relaxing)
 .debug_str     0x00003148      0x11f drivers/mtd/nand/libnand.a(hinfc610_read_retry.o)
                                0xaa0 (size before relaxing)
 .debug_str     0x00003267      0x10b drivers/mtd/nand/libnand.a(hinfc610_ecc_info.o)
                                0xab9 (size before relaxing)
 .debug_str     0x00003372       0xfb drivers/mtd/nand/libnand.a(hinfc610_sync.o)
                                0xa89 (size before relaxing)
 .debug_str     0x0000346d       0xe6 drivers/mtd/nand/libnand.a(hinfc620_gen.o)
                                0x294 (size before relaxing)
 .debug_str     0x00003553       0x5f drivers/mtd/nand/libnand.a(hinfc610_sync_onfi_23.o)
                                0xa19 (size before relaxing)
 .debug_str     0x000035b2       0x63 drivers/mtd/nand/libnand.a(hinfc610_sync_toggle.o)
                                0xa09 (size before relaxing)
 .debug_str     0x00003615       0x3c drivers/mtd/nand/libnand.a(hinfc610_rw_latch.o)
                                0x147 (size before relaxing)
 .debug_str     0x00003651       0x39 drivers/mtd/nand/libnand.a(hinfc610_rw_latch_hi3716mv310.o)
                                 0xe1 (size before relaxing)
 .debug_str     0x0000368a       0x68 drivers/mtd/nand/libnand.a(hinfc_gen.o)
                                0x860 (size before relaxing)
 .debug_str     0x000036f2       0xd0 drivers/mtd/nand/libnand.a(nand_spl_ids.o)
                                0x8cb (size before relaxing)
 .debug_str     0x000037c2      0x15d drivers/mtd/nand/libnand.a(hinfc610_read_retry_hynix_bg_cdie.o)
                                0xb13 (size before relaxing)
 .debug_str     0x0000391f       0xe2 drivers/mtd/nand/libnand.a(hinfc610_read_retry_hynix_bg_bdie.o)
                                0xa9e (size before relaxing)
 .debug_str     0x00003a01      0x147 drivers/mtd/nand/libnand.a(hinfc610_read_retry_hynix_cg_adie.o)
                                0xb14 (size before relaxing)
 .debug_str     0x00003b48       0x7e drivers/mtd/nand/libnand.a(hinfc610_read_retry_micron.o)
                                0xa2e (size before relaxing)
 .debug_str     0x00003bc6       0x90 drivers/mtd/nand/libnand.a(hinfc610_read_retry_samsung.o)
                                0xa40 (size before relaxing)
 .debug_str     0x00003c56       0x9d drivers/mtd/nand/libnand.a(hinfc610_read_retry_toshiba_24nm.o)
                                0xa5f (size before relaxing)
 .debug_str     0x00003cf3       0x9a drivers/mtd/nand/libnand.a(hinfc610_read_retry_toshiba_19nm.o)
                                0xa6d (size before relaxing)
 .debug_str     0x00003d8d       0xee drivers/serial/libserial.a(serial_pl01x.o)
                                0x192 (size before relaxing)
 .debug_str     0x00003e7b      0x10e common/libcommon.a(bootstrap.o)
                                0x296 (size before relaxing)
 .debug_str     0x00003f89       0x71 common/libcommon.a(cmd_boot.o)
                                0x179 (size before relaxing)
 .debug_str     0x00003ffa      0x39b common/libcommon.a(cmd_bootm.o)
                                0x61b (size before relaxing)
 .debug_str     0x00004395      0x13c common/libcommon.a(cmd_ddr_training.o)
                                0x2d7 (size before relaxing)
 .debug_str     0x000044d1       0x3b common/libcommon.a(cmd_getinfo.o)
                                0x202 (size before relaxing)
 .debug_str     0x0000450c       0x5c common/libcommon.a(cmd_help.o)
                                0x187 (size before relaxing)
 .debug_str     0x00004568      0x2af common/libcommon.a(cmd_load.o)
                                0x503 (size before relaxing)
 .debug_str     0x00004817      0x209 common/libcommon.a(cmd_mem.o)
                                0x386 (size before relaxing)
 .debug_str     0x00004a20      0x1a9 common/libcommon.a(cmd_mii.o)
                                0x352 (size before relaxing)
 .debug_str     0x00004bc9      0x17f common/libcommon.a(cmd_nand.o)
                                0xa5f (size before relaxing)
 .debug_str     0x00004d48       0x9b common/libcommon.a(cmd_net.o)
                                0x2c2 (size before relaxing)
 .debug_str     0x00004de3       0xb4 common/libcommon.a(cmd_nvedit.o)
                                0x30e (size before relaxing)
 .debug_str     0x00004e97       0x2e common/libcommon.a(cmd_version.o)
                                0x160 (size before relaxing)
 .debug_str     0x00004ec5      0x15e common/libcommon.a(command.o)
                                0x2cd (size before relaxing)
 .debug_str     0x00005023      0x2f7 common/libcommon.a(console.o)
                                0x4f1 (size before relaxing)
 .debug_str     0x0000531a      0x2e2 common/libcommon.a(dlmalloc.o)
                                0x4f4 (size before relaxing)
 .debug_str     0x000055fc       0xba common/libcommon.a(env_common.o)
                                0x275 (size before relaxing)
 .debug_str     0x000056b6       0x52 common/libcommon.a(env_common_func.o)
                                0x1af (size before relaxing)
 .debug_str     0x00005708       0x93 common/libcommon.a(env_nand.o)
                                0x6b6 (size before relaxing)
 .debug_str     0x0000579b       0x19 common/libcommon.a(exports.o)
                                0x315 (size before relaxing)
 .debug_str     0x000057b4      0x104 common/libcommon.a(hi3716mv310_ddr_training_printf.o)
                                0x22e (size before relaxing)
 .debug_str     0x000058b8      0x2df common/libcommon.a(image.o)
                                0x72e (size before relaxing)
 .debug_str     0x00005b97      0x21e common/libcommon.a(main.o)
                                0x479 (size before relaxing)
 .debug_str     0x00005db5      0x177 common/libcommon.a(miiphyutil.o)
                                0x2a8 (size before relaxing)
 .debug_str     0x00005f2c      0x1da common/libcommon.a(nand_logif.o)
                                0x9f4 (size before relaxing)
 .debug_str     0x00006106       0xdb common/libcommon.a(spiflash_logif.o)
                                0x2d4 (size before relaxing)
 .debug_str     0x000061e1       0x5f common/libcommon.a(stdio.o)
                                0x28c (size before relaxing)
 .debug_str     0x00006240      0x1ec common/libcommon.a(xyzModem.o)
                                0x338 (size before relaxing)
 .debug_str     0x0000642c     0x13ee /home/zyq/share/HI3716STD310/source/boot/product/libproduct.a(main.o)
                               0x14e7 (size before relaxing)
 .debug_str     0x0000781a      0x5db /home/zyq/share/HI3716STD310/source/boot/product/libproduct.a(schedule.o)
                                0xce1 (size before relaxing)
 .debug_str     0x00007df5      0x1b1 /home/zyq/share/HI3716STD310/source/boot/product/libproduct.a(boot_debug.o)
                                0x7a5 (size before relaxing)
 .debug_str     0x00007fa6       0x94 /home/zyq/share/HI3716STD310/source/boot/product/libproduct.a(boot_mem.o)
                                0x1e0 (size before relaxing)
 .debug_str     0x0000803a       0x76 /home/zyq/share/HI3716STD310/source/boot/product/libproduct.a(common_str.o)
                                0x178 (size before relaxing)
 .debug_str     0x000080b0       0xc9 /home/zyq/share/HI3716STD310/source/boot/product/libproduct.a(drv_osal.o)
                                0x1ed (size before relaxing)
 .debug_str     0x00008179      0x2dc /home/zyq/share/HI3716STD310/source/boot/product/libproduct.a(hi_adp_flash.o)
                                0x9b2 (size before relaxing)
 .debug_str     0x00008455      0x53a /home/zyq/share/HI3716STD310/source/boot/product/libproduct.a(hi_go_bliter.o)
                                0x91f (size before relaxing)
 .debug_str     0x0000898f       0x8b /home/zyq/share/HI3716STD310/source/boot/product/libproduct.a(hi_go_comm.o)
                                0x3e7 (size before relaxing)
 .debug_str     0x00008a1a      0x538 /home/zyq/share/HI3716STD310/source/boot/product/libproduct.a(hi_go_decoder.o)
                                0xdd0 (size before relaxing)
 .debug_str     0x00008f52      0x9ac /home/zyq/share/HI3716STD310/source/boot/product/libproduct.a(hi_go_gdev.o)
                               0x128c (size before relaxing)
 .debug_str     0x000098fe       0xc2 /home/zyq/share/HI3716STD310/source/boot/product/libproduct.a(higo_memsurface.o)
                                0x73d (size before relaxing)
 .debug_str     0x000099c0      0x135 /home/zyq/share/HI3716STD310/source/boot/product/libproduct.a(hi_go_surface.o)
                                0x792 (size before relaxing)
 .debug_str     0x00009af5      0x1fc /home/zyq/share/HI3716STD310/source/boot/product/libproduct.a(higo_surface.o)
                                0x94a (size before relaxing)
 .debug_str     0x00009cf1      0xb82 /home/zyq/share/HI3716STD310/source/boot/product/libproduct.a(adp_jpeg.o)
                               0x16ab (size before relaxing)
 .debug_str     0x0000a873      0x949 /home/zyq/share/HI3716STD310/source/boot/product/libproduct.a(jpg_decctrl.o)
                               0x16fe (size before relaxing)
 .debug_str     0x0000b1bc       0xce /home/zyq/share/HI3716STD310/source/boot/product/libproduct.a(jpg_handle.o)
                                0x48f (size before relaxing)
 .debug_str     0x0000b28a      0x72e /home/zyq/share/HI3716STD310/source/boot/product/libproduct.a(jpg_hdec.o)
                               0x16e8 (size before relaxing)
 .debug_str     0x0000b9b8      0x47d /home/zyq/share/HI3716STD310/source/boot/product/libproduct.a(jpg_parse.o)
                                0xeb5 (size before relaxing)
 .debug_str     0x0000be35      0x15f /home/zyq/share/HI3716STD310/source/boot/product/libproduct.a(drv_i2c.o)
                                0x235 (size before relaxing)
 .debug_str     0x0000bf94      0x33d /home/zyq/share/HI3716STD310/source/boot/product/libproduct.a(drv_gpio.o)
                                0x451 (size before relaxing)
 .debug_str     0x0000c2d1      0xa68 /home/zyq/share/HI3716STD310/source/boot/product/libproduct.a(boot_pdm.o)
                               0x16fc (size before relaxing)
 .debug_str     0x0000cd39      0x63d /home/zyq/share/HI3716STD310/source/boot/product/libproduct.a(hdmi.o)
                                0xbc3 (size before relaxing)
 .debug_str     0x0000d376      0x17e /home/zyq/share/HI3716STD310/source/boot/product/libproduct.a(txvidp.o)
                                0x294 (size before relaxing)
 .debug_str     0x0000d4f4       0xa7 /home/zyq/share/HI3716STD310/source/boot/product/libproduct.a(infofrm.o)
                                0x1bf (size before relaxing)
 .debug_str     0x0000d59b       0xe9 /home/zyq/share/HI3716STD310/source/boot/product/libproduct.a(hdmitx.o)
                                0x3c7 (size before relaxing)
 .debug_str     0x0000d684       0x59 /home/zyq/share/HI3716STD310/source/boot/product/libproduct.a(drv_hlviic.o)
                                0x150 (size before relaxing)
 .debug_str     0x0000d6dd       0x76 /home/zyq/share/HI3716STD310/source/boot/product/libproduct.a(txvptbl.o)
                                0x159 (size before relaxing)
 .debug_str     0x0000d753      0x143 /home/zyq/share/HI3716STD310/source/boot/product/libproduct.a(phy.o)
                                0x307 (size before relaxing)
 .debug_str     0x0000d896      0x116 /home/zyq/share/HI3716STD310/source/boot/product/libproduct.a(de.o)
                                0x65e (size before relaxing)
 .debug_str     0x0000d9ac      0x507 /home/zyq/share/HI3716STD310/source/boot/product/libproduct.a(hi_keyled_inner.o)
                                0x60d (size before relaxing)
 .debug_str     0x0000deb3      0x16b /home/zyq/share/HI3716STD310/source/boot/product/libproduct.a(cmd_otp.o)
                                0x2b4 (size before relaxing)
 .debug_str     0x0000e01e     0x17fc /home/zyq/share/HI3716STD310/source/boot/product/libproduct.a(otp.o)
                               0x1e39 (size before relaxing)
 .debug_str     0x0000f81a      0x140 /home/zyq/share/HI3716STD310/source/boot/product/libproduct.a(unf_otp.o)
                                0x2eb (size before relaxing)
 .debug_str     0x0000f95a       0x56 /home/zyq/share/HI3716STD310/source/boot/product/libproduct.a(boot_logo.o)
                                0x323 (size before relaxing)
 .debug_str     0x0000f9b0      0x12e /home/zyq/share/HI3716STD310/source/boot/product/libproduct.a(boot_adp.o)
                                0xe6c (size before relaxing)
 .debug_str     0x0000fade      0xb36 /home/zyq/share/HI3716STD310/source/boot/product/libproduct.a(common_api.o)
                               0x104d (size before relaxing)
 .debug_str     0x00010614      0xc4b /home/zyq/share/HI3716STD310/source/boot/product/libproduct.a(drv_reg_common.o)
                               0x34e5 (size before relaxing)
 .debug_str     0x0001125f      0x7d1 /home/zyq/share/HI3716STD310/source/boot/product/libproduct.a(drv_grc_adpt.o)
                                0xb8f (size before relaxing)
 .debug_str     0x00011a30     0x1f39 /home/zyq/share/HI3716STD310/source/boot/product/libproduct.a(optm_hifb.o)
                               0x3079 (size before relaxing)
 .debug_str     0x00013969     0x1b76 /home/zyq/share/HI3716STD310/source/boot/product/libproduct.a(optm_m_disp.o)
                               0x3765 (size before relaxing)
 .debug_str     0x000154df      0x383 /home/zyq/share/HI3716STD310/source/boot/product/libproduct.a(vo_wrap.o)
                               0x2163 (size before relaxing)
 .debug_str     0x00015862     0x227d /home/zyq/share/HI3716STD310/source/boot/product/libproduct.a(optm_alg_api.o)
                               0x3419 (size before relaxing)
 .debug_str     0x00017adf      0xbb2 /home/zyq/share/HI3716STD310/source/boot/product/libproduct.a(optm_alg.o)
                               0x1abc (size before relaxing)
 .debug_str     0x00018691     0x1498 /home/zyq/share/HI3716STD310/source/boot/product/libproduct.a(adp_gfx.o)
                               0x2110 (size before relaxing)
 .debug_str     0x00019b29      0x101 /home/zyq/share/HI3716STD310/source/boot/product/libproduct.a(adp_layer.o)
                                0x94d (size before relaxing)
 .debug_str     0x00019c2a       0x88 /home/zyq/share/HI3716STD310/source/boot/product/libproduct.a(hi_api_mmz.o)
                                0x19a (size before relaxing)
 .debug_str     0x00019cb2       0x40 /home/zyq/share/HI3716STD310/source/boot/product/libproduct.a(higo_blit.o)
                                0x998 (size before relaxing)
 .debug_str     0x00019cf2      0x17f /home/zyq/share/HI3716STD310/source/boot/product/libproduct.a(higo_io.o)
                                0x689 (size before relaxing)
 .debug_str     0x00019e71       0xe2 /home/zyq/share/HI3716STD310/source/boot/product/libproduct.a(higo_memory.o)
                                0x246 (size before relaxing)
 .debug_str     0x00019f53      0x15c /home/zyq/share/HI3716STD310/source/boot/product/libproduct.a(hi_api_tde.o)
                               0x1652 (size before relaxing)
 .debug_str     0x0001a0af     0x230b /home/zyq/share/HI3716STD310/source/boot/product/libproduct.a(tde_osictl.o)
                               0x3cf8 (size before relaxing)
 .debug_str     0x0001c3ba      0x447 /home/zyq/share/HI3716STD310/source/boot/product/libproduct.a(tde_osilist.o)
                                0x9b0 (size before relaxing)
 .debug_str     0x0001c801       0x2a /home/zyq/share/HI3716STD310/source/boot/product/libproduct.a(tde_osr.o)
                                0x109 (size before relaxing)
 .debug_str     0x0001c82b      0x15e /home/zyq/share/HI3716STD310/source/boot/product/libproduct.a(wmalloc.o)
                                0x2ee (size before relaxing)
 .debug_str     0x0001c989      0x17a /home/zyq/share/HI3716STD310/source/boot/product/libproduct.a(jpg_buf.o)
                                0x318 (size before relaxing)
 .debug_str     0x0001cb03       0x87 /home/zyq/share/HI3716STD310/source/boot/product/libproduct.a(jpg_drvapi.o)
                                0x207 (size before relaxing)
 .debug_str     0x0001cb8a       0x11 /home/zyq/share/HI3716STD310/source/boot/product/libproduct.a(vmtables.o)
                                0x657 (size before relaxing)
 .debug_str     0x0001cb9b      0x125 /home/zyq/share/HI3716STD310/source/boot/product/libproduct.a(optm_disp_rwzb.o)
                                0x1cc (size before relaxing)
 .debug_str     0x0001ccc0     0x926e /home/zyq/share/HI3716STD310/source/boot/product/libproduct.a(optm_hal.o)
                               0xcecb (size before relaxing)
 .debug_str     0x00025f2e      0xbf7 /home/zyq/share/HI3716STD310/source/boot/product/libproduct.a(tde_hal.o)
                               0x264c (size before relaxing)
 .debug_str     0x00026b25       0x94 board/hi3716mv310/libhi3716mv310.a(board.o)
                                0x1f2 (size before relaxing)
 .debug_str     0x00026bb9      0x232 board/hi3716mv310/libhi3716mv310.a(eth_cfg_setup.o)
                                0x36f (size before relaxing)
 .debug_str     0x00026deb       0x5b lib/libgeneric.a(crc16.o)
                                 0xfc (size before relaxing)
 .debug_str     0x00026e46       0x45 lib/libgeneric.a(crc32.o)
                                0x14e (size before relaxing)
 .debug_str     0x00026e8b        0x8 lib/libgeneric.a(ctype.o)
                                 0x5f (size before relaxing)
 .debug_str     0x00026e93       0x48 lib/libgeneric.a(display_options.o)
                                0x192 (size before relaxing)
 .debug_str     0x00026edb       0x13 lib/libgeneric.a(div64.o)
                                0x106 (size before relaxing)
 .debug_str     0x00026eee       0x19 lib/libgeneric.a(net_utils.o)
                                0x108 (size before relaxing)
 .debug_str     0x00026f07       0xbb lib/libgeneric.a(string.o)
                                0x1da (size before relaxing)
 .debug_str     0x00026fc2       0x13 lib/libgeneric.a(time.o)
                                 0xf0 (size before relaxing)
 .debug_str     0x00026fd5      0x103 lib/libgeneric.a(vsprintf.o)
                                0x2a6 (size before relaxing)
 .debug_str     0x000270d8       0xcb lib/libgeneric.a(vsnprintf.o)
                                0x263 (size before relaxing)
 .debug_str     0x000271a3      0x12b lib/libgeneric.a(reserve_mem.o)
                                0x327 (size before relaxing)
 .debug_str     0x000272ce       0xa2 lib/libgeneric.a(parse_bootargs.o)
                                0x1ca (size before relaxing)
 .debug_str     0x00027370       0x20 lib/libgeneric.a(match_table.o)
                                0x132 (size before relaxing)
 .debug_str     0x00027390       0xc2 lib/libgeneric.a(bootimg.o)
                                0x1d6 (size before relaxing)
 .debug_str     0x00027452       0x7c arch/arm/cpu/hi3716mv310/libhi3716mv310.a(cpu.o)
                                0x1de (size before relaxing)
 .debug_str     0x000274ce       0xa9 arch/arm/cpu/hi3716mv310/libhi3716mv310.a(timer.o)
                                0x1d6 (size before relaxing)
 .debug_str     0x00027577      0x301 arch/arm/lib/libarm.a(bootm.o)
                                0x6cd (size before relaxing)
 .debug_str     0x00027878       0x6f arch/arm/lib/libarm.a(tags.o)
                                0x177 (size before relaxing)
 .debug_str     0x000278e7       0x22 arch/arm/lib/libarm.a(cache.o)
                                 0xf6 (size before relaxing)
 .debug_str     0x00027909       0x52 arch/arm/lib/libarm.a(cache-cp15.o)
                                0x145 (size before relaxing)
 .debug_str     0x0002795b        0x8 arch/arm/lib/libarm.a(reset.o)
                                0x13a (size before relaxing)
 .debug_str     0x00027963       0x31 arch/arm/lib/libarm.a(process.o)
                                0x114 (size before relaxing)
 .debug_str     0x00027994       0xe3 drivers/mtd/nand/libnand.a(hinfc_yaffs.o)
                                0x282 (size before relaxing)
 .debug_str     0x00027a77      0x199 drivers/mtd/nand/libnand.a(nand_util.o)
                                0xa4a (size before relaxing)
 .debug_str     0x00027c10       0x9f drivers/mtd/spi/libspi_flash.a(spi_compatible.o)
                                0x21e (size before relaxing)
 .debug_str     0x00027caf      0x262 drivers/net/hisfv300/libhisfv300.a(net-drv.o)
                                0x4a3 (size before relaxing)
 .debug_str     0x00027f11       0xa4 drivers/net/hisfv300/libhisfv300.a(mii-drv.o)
                                0x1a7 (size before relaxing)
 .debug_str     0x00027fb5       0x85 drivers/net/hisfv300/libhisfv300.a(ctrl.o)
                                0x200 (size before relaxing)
 .debug_str     0x0002803a       0x1e drivers/net/hisfv300/libhisfv300.a(glb.o)
                                0x14e (size before relaxing)
 .debug_str     0x00028058       0xc6 drivers/net/hisfv300/libhisfv300.a(mac.o)
                                0x239 (size before relaxing)
 .debug_str     0x0002811e       0x70 drivers/net/hisfv300/libhisfv300.a(mdio.o)
                                0x194 (size before relaxing)
 .debug_str     0x0002818e       0xde drivers/net/hisfv300/libhisfv300.a(sys.o)
                                0x1e3 (size before relaxing)
 .debug_str     0x0002826c       0x75 drivers/net/hisfv300/libhisfv300.a(phy_fix.o)
                                0x26e (size before relaxing)
 .debug_str     0x000282e1      0x112 common/libcommon.a(flash_part.o)
                                0x265 (size before relaxing)
 .debug_str     0x000283f3       0x32 /home/zyq/share/HI3716STD310/source/boot/fastboot/arch/arm/lib/eabi_compat.o
                                0x106 (size before relaxing)
 .debug_str     0x00028425       0xbe /opt/hisi-linux/x86-arm/arm-hisiv200-linux/bin/../lib/gcc/arm-hisiv200-linux-gnueabi/4.4.1/libgcc.a(bpabi.o)
                                 0xf9 (size before relaxing)
 .debug_str     0x000284e3      0x219 /opt/hisi-linux/x86-arm/arm-hisiv200-linux/bin/../lib/gcc/arm-hisiv200-linux-gnueabi/4.4.1/libgcc.a(_divdi3.o)
                                0x345 (size before relaxing)
 .debug_str     0x000286fc        0xa /opt/hisi-linux/x86-arm/arm-hisiv200-linux/bin/../lib/gcc/arm-hisiv200-linux-gnueabi/4.4.1/libgcc.a(_udivdi3.o)
                                0x346 (size before relaxing)

.debug_frame    0x00000000     0xbffc
 .debug_frame   0x00000000       0xbc arch/arm/cpu/hi3716mv310/lowlevel_init.o
 .debug_frame   0x000000bc       0x50 arch/arm/cpu/hi3716mv310/chip.o
 .debug_frame   0x0000010c       0x68 arch/arm/cpu/hi3716mv310/ddrphy_training.o
 .debug_frame   0x00000174      0x110 arch/arm/cpu/hi3716mv310/ddr_dataeye_training.o
 .debug_frame   0x00000284       0x2c arch/arm/cpu/hi3716mv310/libhi3716mv310.a(hi3716mv310_ddr_training.o)
 .debug_frame   0x000002b0       0x80 arch/arm/lib/libarm.a(board.o)
 .debug_frame   0x00000330      0x110 arch/arm/lib/libarm.a(interrupts.o)
 .debug_frame   0x00000440       0x70 arch/arm/lib/libarm.a(ddr_layout.o)
 .debug_frame   0x000004b0       0x2c arch/arm/lib/libarm.a(ddr_size.o)
 .debug_frame   0x000004dc      0x128 arch/arm/lib/libarm.a(cpu_info.o)
 .debug_frame   0x00000604      0x22c net/libnet.a(eth.o)
 .debug_frame   0x00000830      0x310 net/libnet.a(net.o)
 .debug_frame   0x00000b40       0x60 net/libnet.a(rarp.o)
 .debug_frame   0x00000ba0       0xdc net/libnet.a(tftp.o)
 .debug_frame   0x00000c7c       0xf8 net/libnet.a(bootp.o)
 .debug_frame   0x00000d74       0x2c drivers/mtd/nand/libnand.a(nand.o)
 .debug_frame   0x00000da0       0x58 drivers/mtd/nand/libnand.a(hinfc_init.o)
 .debug_frame   0x00000df8      0x758 drivers/mtd/nand/libnand.a(nand_base.o)
 .debug_frame   0x00001550      0x1b8 drivers/mtd/nand/libnand.a(nand_bbt.o)
 .debug_frame   0x00001708       0x4c drivers/mtd/nand/libnand.a(nand_ecc.o)
 .debug_frame   0x00001754      0x354 drivers/mtd/nand/libnand.a(hinfc610.o)
 .debug_frame   0x00001aa8       0x50 drivers/mtd/nand/libnand.a(hinfc610_gen.o)
 .debug_frame   0x00001af8       0x20 drivers/mtd/nand/libnand.a(hinfc610_read_retry.o)
 .debug_frame   0x00001b18       0xf8 drivers/mtd/nand/libnand.a(hinfc610_ecc_info.o)
 .debug_frame   0x00001c10       0x30 drivers/mtd/nand/libnand.a(hinfc610_sync.o)
 .debug_frame   0x00001c40       0x50 drivers/mtd/nand/libnand.a(hinfc620_gen.o)
 .debug_frame   0x00001c90       0x40 drivers/mtd/nand/libnand.a(hinfc610_sync_onfi_23.o)
 .debug_frame   0x00001cd0       0x40 drivers/mtd/nand/libnand.a(hinfc610_sync_toggle.o)
 .debug_frame   0x00001d10       0x2c drivers/mtd/nand/libnand.a(hinfc610_rw_latch.o)
 .debug_frame   0x00001d3c       0x40 drivers/mtd/nand/libnand.a(hinfc_gen.o)
 .debug_frame   0x00001d7c       0x90 drivers/mtd/nand/libnand.a(nand_spl_ids.o)
 .debug_frame   0x00001e0c       0x7c drivers/mtd/nand/libnand.a(hinfc610_read_retry_hynix_bg_cdie.o)
 .debug_frame   0x00001e88       0x44 drivers/mtd/nand/libnand.a(hinfc610_read_retry_hynix_bg_bdie.o)
 .debug_frame   0x00001ecc       0x80 drivers/mtd/nand/libnand.a(hinfc610_read_retry_hynix_cg_adie.o)
 .debug_frame   0x00001f4c       0x4c drivers/mtd/nand/libnand.a(hinfc610_read_retry_micron.o)
 .debug_frame   0x00001f98       0x50 drivers/mtd/nand/libnand.a(hinfc610_read_retry_samsung.o)
 .debug_frame   0x00001fe8       0x58 drivers/mtd/nand/libnand.a(hinfc610_read_retry_toshiba_24nm.o)
 .debug_frame   0x00002040       0x54 drivers/mtd/nand/libnand.a(hinfc610_read_retry_toshiba_19nm.o)
 .debug_frame   0x00002094       0xa4 drivers/serial/libserial.a(serial_pl01x.o)
 .debug_frame   0x00002138       0xe4 common/libcommon.a(bootstrap.o)
 .debug_frame   0x0000221c       0x44 common/libcommon.a(cmd_boot.o)
 .debug_frame   0x00002260      0x148 common/libcommon.a(cmd_bootm.o)
 .debug_frame   0x000023a8       0xbc common/libcommon.a(cmd_ddr_training.o)
 .debug_frame   0x00002464       0x30 common/libcommon.a(cmd_getinfo.o)
 .debug_frame   0x00002494       0x2c common/libcommon.a(cmd_help.o)
 .debug_frame   0x000024c0      0x1b4 common/libcommon.a(cmd_load.o)
 .debug_frame   0x00002674      0x180 common/libcommon.a(cmd_mem.o)
 .debug_frame   0x000027f4       0x80 common/libcommon.a(cmd_mii.o)
 .debug_frame   0x00002874       0xec common/libcommon.a(cmd_nand.o)
 .debug_frame   0x00002960       0x84 common/libcommon.a(cmd_net.o)
 .debug_frame   0x000029e4      0x140 common/libcommon.a(cmd_nvedit.o)
 .debug_frame   0x00002b24       0x28 common/libcommon.a(cmd_version.o)
 .debug_frame   0x00002b4c      0x110 common/libcommon.a(command.o)
 .debug_frame   0x00002c5c      0x230 common/libcommon.a(console.o)
 .debug_frame   0x00002e8c      0x150 common/libcommon.a(dlmalloc.o)
 .debug_frame   0x00002fdc       0xb4 common/libcommon.a(env_common.o)
 .debug_frame   0x00003090       0x80 common/libcommon.a(env_common_func.o)
 .debug_frame   0x00003110       0x90 common/libcommon.a(env_nand.o)
 .debug_frame   0x000031a0       0x48 common/libcommon.a(exports.o)
 .debug_frame   0x000031e8       0x38 common/libcommon.a(hi3716mv310_ddr_training_printf.o)
 .debug_frame   0x00003220      0x298 common/libcommon.a(image.o)
 .debug_frame   0x000034b8      0x124 common/libcommon.a(main.o)
 .debug_frame   0x000035dc      0x1a4 common/libcommon.a(miiphyutil.o)
 .debug_frame   0x00003780      0x154 common/libcommon.a(nand_logif.o)
 .debug_frame   0x000038d4       0xc0 common/libcommon.a(spiflash_logif.o)
 .debug_frame   0x00003994       0x94 common/libcommon.a(stdio.o)
 .debug_frame   0x00003a28      0x150 common/libcommon.a(xyzModem.o)
 .debug_frame   0x00003b78       0xdc /home/zyq/share/HI3716STD310/source/boot/product/libproduct.a(main.o)
 .debug_frame   0x00003c54      0x110 /home/zyq/share/HI3716STD310/source/boot/product/libproduct.a(schedule.o)
 .debug_frame   0x00003d64       0x70 /home/zyq/share/HI3716STD310/source/boot/product/libproduct.a(boot_debug.o)
 .debug_frame   0x00003dd4       0x90 /home/zyq/share/HI3716STD310/source/boot/product/libproduct.a(boot_mem.o)
 .debug_frame   0x00003e64       0xc8 /home/zyq/share/HI3716STD310/source/boot/product/libproduct.a(common_str.o)
 .debug_frame   0x00003f2c       0x80 /home/zyq/share/HI3716STD310/source/boot/product/libproduct.a(drv_osal.o)
 .debug_frame   0x00003fac      0x1a8 /home/zyq/share/HI3716STD310/source/boot/product/libproduct.a(hi_adp_flash.o)
 .debug_frame   0x00004154       0x94 /home/zyq/share/HI3716STD310/source/boot/product/libproduct.a(hi_go_bliter.o)
 .debug_frame   0x000041e8       0x68 /home/zyq/share/HI3716STD310/source/boot/product/libproduct.a(hi_go_comm.o)
 .debug_frame   0x00004250       0xb0 /home/zyq/share/HI3716STD310/source/boot/product/libproduct.a(hi_go_decoder.o)
 .debug_frame   0x00004300      0x264 /home/zyq/share/HI3716STD310/source/boot/product/libproduct.a(hi_go_gdev.o)
 .debug_frame   0x00004564       0xa4 /home/zyq/share/HI3716STD310/source/boot/product/libproduct.a(higo_memsurface.o)
 .debug_frame   0x00004608       0xa8 /home/zyq/share/HI3716STD310/source/boot/product/libproduct.a(hi_go_surface.o)
 .debug_frame   0x000046b0      0x170 /home/zyq/share/HI3716STD310/source/boot/product/libproduct.a(higo_surface.o)
 .debug_frame   0x00004820      0x110 /home/zyq/share/HI3716STD310/source/boot/product/libproduct.a(adp_jpeg.o)
 .debug_frame   0x00004930      0x114 /home/zyq/share/HI3716STD310/source/boot/product/libproduct.a(jpg_decctrl.o)
 .debug_frame   0x00004a44       0x70 /home/zyq/share/HI3716STD310/source/boot/product/libproduct.a(jpg_handle.o)
 .debug_frame   0x00004ab4      0x1a8 /home/zyq/share/HI3716STD310/source/boot/product/libproduct.a(jpg_hdec.o)
 .debug_frame   0x00004c5c      0x154 /home/zyq/share/HI3716STD310/source/boot/product/libproduct.a(jpg_parse.o)
 .debug_frame   0x00004db0      0x14c /home/zyq/share/HI3716STD310/source/boot/product/libproduct.a(drv_i2c.o)
 .debug_frame   0x00004efc       0xdc /home/zyq/share/HI3716STD310/source/boot/product/libproduct.a(drv_gpio.o)
 .debug_frame   0x00004fd8      0x2d4 /home/zyq/share/HI3716STD310/source/boot/product/libproduct.a(boot_pdm.o)
 .debug_frame   0x000052ac      0x168 /home/zyq/share/HI3716STD310/source/boot/product/libproduct.a(hdmi.o)
 .debug_frame   0x00005414       0x9c /home/zyq/share/HI3716STD310/source/boot/product/libproduct.a(txvidp.o)
 .debug_frame   0x000054b0       0x90 /home/zyq/share/HI3716STD310/source/boot/product/libproduct.a(infofrm.o)
 .debug_frame   0x00005540      0x14c /home/zyq/share/HI3716STD310/source/boot/product/libproduct.a(hdmitx.o)
 .debug_frame   0x0000568c       0x50 /home/zyq/share/HI3716STD310/source/boot/product/libproduct.a(drv_hlviic.o)
 .debug_frame   0x000056dc      0x164 /home/zyq/share/HI3716STD310/source/boot/product/libproduct.a(phy.o)
 .debug_frame   0x00005840       0x2c /home/zyq/share/HI3716STD310/source/boot/product/libproduct.a(de.o)
 .debug_frame   0x0000586c      0x168 /home/zyq/share/HI3716STD310/source/boot/product/libproduct.a(hi_keyled_inner.o)
 .debug_frame   0x000059d4       0xc4 /home/zyq/share/HI3716STD310/source/boot/product/libproduct.a(cmd_otp.o)
 .debug_frame   0x00005a98      0x14c /home/zyq/share/HI3716STD310/source/boot/product/libproduct.a(otp.o)
 .debug_frame   0x00005be4      0x138 /home/zyq/share/HI3716STD310/source/boot/product/libproduct.a(unf_otp.o)
 .debug_frame   0x00005d1c       0x34 /home/zyq/share/HI3716STD310/source/boot/product/libproduct.a(boot_logo.o)
 .debug_frame   0x00005d50       0x64 /home/zyq/share/HI3716STD310/source/boot/product/libproduct.a(boot_adp.o)
 .debug_frame   0x00005db4       0x2c /home/zyq/share/HI3716STD310/source/boot/product/libproduct.a(common_api.o)
 .debug_frame   0x00005de0      0x20c /home/zyq/share/HI3716STD310/source/boot/product/libproduct.a(drv_grc_adpt.o)
 .debug_frame   0x00005fec      0x474 /home/zyq/share/HI3716STD310/source/boot/product/libproduct.a(optm_hifb.o)
 .debug_frame   0x00006460      0x9ac /home/zyq/share/HI3716STD310/source/boot/product/libproduct.a(optm_m_disp.o)
 .debug_frame   0x00006e0c      0x2d8 /home/zyq/share/HI3716STD310/source/boot/product/libproduct.a(vo_wrap.o)
 .debug_frame   0x000070e4      0x444 /home/zyq/share/HI3716STD310/source/boot/product/libproduct.a(optm_alg_api.o)
 .debug_frame   0x00007528      0x2b4 /home/zyq/share/HI3716STD310/source/boot/product/libproduct.a(optm_alg.o)
 .debug_frame   0x000077dc      0x140 /home/zyq/share/HI3716STD310/source/boot/product/libproduct.a(adp_gfx.o)
 .debug_frame   0x0000791c       0x70 /home/zyq/share/HI3716STD310/source/boot/product/libproduct.a(adp_layer.o)
 .debug_frame   0x0000798c       0x54 /home/zyq/share/HI3716STD310/source/boot/product/libproduct.a(hi_api_mmz.o)
 .debug_frame   0x000079e0       0x58 /home/zyq/share/HI3716STD310/source/boot/product/libproduct.a(higo_blit.o)
 .debug_frame   0x00007a38      0x148 /home/zyq/share/HI3716STD310/source/boot/product/libproduct.a(higo_io.o)
 .debug_frame   0x00007b80       0x74 /home/zyq/share/HI3716STD310/source/boot/product/libproduct.a(higo_memory.o)
 .debug_frame   0x00007bf4       0xe0 /home/zyq/share/HI3716STD310/source/boot/product/libproduct.a(hi_api_tde.o)
 .debug_frame   0x00007cd4      0x3a4 /home/zyq/share/HI3716STD310/source/boot/product/libproduct.a(tde_osictl.o)
 .debug_frame   0x00008078      0x154 /home/zyq/share/HI3716STD310/source/boot/product/libproduct.a(tde_osilist.o)
 .debug_frame   0x000081cc       0x40 /home/zyq/share/HI3716STD310/source/boot/product/libproduct.a(tde_osr.o)
 .debug_frame   0x0000820c       0xf8 /home/zyq/share/HI3716STD310/source/boot/product/libproduct.a(wmalloc.o)
 .debug_frame   0x00008304      0x124 /home/zyq/share/HI3716STD310/source/boot/product/libproduct.a(jpg_buf.o)
 .debug_frame   0x00008428       0x30 /home/zyq/share/HI3716STD310/source/boot/product/libproduct.a(jpg_drvapi.o)
 .debug_frame   0x00008458       0x58 /home/zyq/share/HI3716STD310/source/boot/product/libproduct.a(optm_disp_rwzb.o)
 .debug_frame   0x000084b0     0x2120 /home/zyq/share/HI3716STD310/source/boot/product/libproduct.a(optm_hal.o)
 .debug_frame   0x0000a5d0      0x3dc /home/zyq/share/HI3716STD310/source/boot/product/libproduct.a(tde_hal.o)
 .debug_frame   0x0000a9ac       0x70 board/hi3716mv310/libhi3716mv310.a(board.o)
 .debug_frame   0x0000aa1c      0x168 board/hi3716mv310/libhi3716mv310.a(eth_cfg_setup.o)
 .debug_frame   0x0000ab84       0x28 lib/libgeneric.a(crc16.o)
 .debug_frame   0x0000abac       0x58 lib/libgeneric.a(crc32.o)
 .debug_frame   0x0000ac04       0x98 lib/libgeneric.a(display_options.o)
 .debug_frame   0x0000ac9c       0x34 lib/libgeneric.a(div64.o)
 .debug_frame   0x0000acd0       0x30 lib/libgeneric.a(net_utils.o)
 .debug_frame   0x0000ad00      0x214 lib/libgeneric.a(string.o)
 .debug_frame   0x0000af14       0x44 lib/libgeneric.a(time.o)
 .debug_frame   0x0000af58      0x1b0 lib/libgeneric.a(vsprintf.o)
 .debug_frame   0x0000b108       0xac lib/libgeneric.a(vsnprintf.o)
 .debug_frame   0x0000b1b4       0xa4 lib/libgeneric.a(reserve_mem.o)
 .debug_frame   0x0000b258       0xac lib/libgeneric.a(parse_bootargs.o)
 .debug_frame   0x0000b304       0x60 lib/libgeneric.a(match_table.o)
 .debug_frame   0x0000b364       0x88 lib/libgeneric.a(bootimg.o)
 .debug_frame   0x0000b3ec       0x58 arch/arm/cpu/hi3716mv310/libhi3716mv310.a(cpu.o)
 .debug_frame   0x0000b444      0x11c arch/arm/cpu/hi3716mv310/libhi3716mv310.a(timer.o)
 .debug_frame   0x0000b560       0x38 arch/arm/lib/libarm.a(bootm.o)
 .debug_frame   0x0000b598       0x4c arch/arm/lib/libarm.a(tags.o)
 .debug_frame   0x0000b5e4       0x20 arch/arm/lib/libarm.a(cache.o)
 .debug_frame   0x0000b604       0x58 arch/arm/lib/libarm.a(cache-cp15.o)
 .debug_frame   0x0000b65c       0x28 arch/arm/lib/libarm.a(reset.o)
 .debug_frame   0x0000b684       0x38 arch/arm/lib/libarm.a(process.o)
 .debug_frame   0x0000b6bc       0x30 drivers/mtd/nand/libnand.a(hinfc_yaffs.o)
 .debug_frame   0x0000b6ec      0x168 drivers/mtd/nand/libnand.a(nand_util.o)
 .debug_frame   0x0000b854       0x50 drivers/mtd/spi/libspi_flash.a(spi_compatible.o)
 .debug_frame   0x0000b8a4      0x18c drivers/net/hisfv300/libhisfv300.a(net-drv.o)
 .debug_frame   0x0000ba30       0x88 drivers/net/hisfv300/libhisfv300.a(mii-drv.o)
 .debug_frame   0x0000bab8       0x80 drivers/net/hisfv300/libhisfv300.a(ctrl.o)
 .debug_frame   0x0000bb38       0x2c drivers/net/hisfv300/libhisfv300.a(glb.o)
 .debug_frame   0x0000bb64       0xc0 drivers/net/hisfv300/libhisfv300.a(mac.o)
 .debug_frame   0x0000bc24       0xa4 drivers/net/hisfv300/libhisfv300.a(mdio.o)
 .debug_frame   0x0000bcc8       0xa0 drivers/net/hisfv300/libhisfv300.a(sys.o)
 .debug_frame   0x0000bd68       0x8c drivers/net/hisfv300/libhisfv300.a(phy_fix.o)
 .debug_frame   0x0000bdf4       0xc0 common/libcommon.a(flash_part.o)
 .debug_frame   0x0000beb4       0x38 /home/zyq/share/HI3716STD310/source/boot/fastboot/arch/arm/lib/eabi_compat.o
 .debug_frame   0x0000beec       0x20 /opt/hisi-linux/x86-arm/arm-hisiv200-linux/bin/../lib/gcc/arm-hisiv200-linux-gnueabi/4.4.1/libgcc.a(_udivsi3.o)
 .debug_frame   0x0000bf0c       0x20 /opt/hisi-linux/x86-arm/arm-hisiv200-linux/bin/../lib/gcc/arm-hisiv200-linux-gnueabi/4.4.1/libgcc.a(_divsi3.o)
 .debug_frame   0x0000bf2c       0x58 /opt/hisi-linux/x86-arm/arm-hisiv200-linux/bin/../lib/gcc/arm-hisiv200-linux-gnueabi/4.4.1/libgcc.a(bpabi.o)
 .debug_frame   0x0000bf84       0x3c /opt/hisi-linux/x86-arm/arm-hisiv200-linux/bin/../lib/gcc/arm-hisiv200-linux-gnueabi/4.4.1/libgcc.a(_divdi3.o)
 .debug_frame   0x0000bfc0       0x3c /opt/hisi-linux/x86-arm/arm-hisiv200-linux/bin/../lib/gcc/arm-hisiv200-linux-gnueabi/4.4.1/libgcc.a(_udivdi3.o)

.debug_ranges   0x00000000     0x6150
 .debug_ranges  0x00000000       0x40 arch/arm/cpu/hi3716mv310/ddr_dataeye_training.o
 .debug_ranges  0x00000040       0x30 arch/arm/lib/libarm.a(board.o)
 .debug_ranges  0x00000070       0x38 net/libnet.a(eth.o)
 .debug_ranges  0x000000a8       0x70 net/libnet.a(net.o)
 .debug_ranges  0x00000118       0xf0 net/libnet.a(bootp.o)
 .debug_ranges  0x00000208      0x170 drivers/mtd/nand/libnand.a(nand_base.o)
 .debug_ranges  0x00000378       0xc8 drivers/mtd/nand/libnand.a(nand_bbt.o)
 .debug_ranges  0x00000440       0x78 drivers/mtd/nand/libnand.a(hinfc610.o)
 .debug_ranges  0x000004b8       0x78 drivers/mtd/nand/libnand.a(hinfc610_sync.o)
 .debug_ranges  0x00000530       0x70 drivers/mtd/nand/libnand.a(hinfc610_read_retry_hynix_bg_cdie.o)
 .debug_ranges  0x000005a0       0x70 drivers/mtd/nand/libnand.a(hinfc610_read_retry_hynix_cg_adie.o)
 .debug_ranges  0x00000610       0x30 common/libcommon.a(cmd_bootm.o)
 .debug_ranges  0x00000640       0x30 common/libcommon.a(cmd_ddr_training.o)
 .debug_ranges  0x00000670       0xc0 common/libcommon.a(cmd_load.o)
 .debug_ranges  0x00000730       0x80 common/libcommon.a(cmd_mii.o)
 .debug_ranges  0x000007b0       0x50 common/libcommon.a(cmd_nand.o)
 .debug_ranges  0x00000800       0x48 common/libcommon.a(cmd_nvedit.o)
 .debug_ranges  0x00000848       0x90 common/libcommon.a(command.o)
 .debug_ranges  0x000008d8       0x30 common/libcommon.a(env_common.o)
 .debug_ranges  0x00000908       0x30 common/libcommon.a(env_nand.o)
 .debug_ranges  0x00000938       0x30 common/libcommon.a(hi3716mv310_ddr_training_printf.o)
 .debug_ranges  0x00000968       0x78 common/libcommon.a(image.o)
 .debug_ranges  0x000009e0       0x98 common/libcommon.a(main.o)
 .debug_ranges  0x00000a78       0x90 common/libcommon.a(nand_logif.o)
 .debug_ranges  0x00000b08       0x18 common/libcommon.a(spiflash_logif.o)
 .debug_ranges  0x00000b20       0xb0 common/libcommon.a(stdio.o)
 .debug_ranges  0x00000bd0      0x2e0 /home/zyq/share/HI3716STD310/source/boot/product/libproduct.a(schedule.o)
 .debug_ranges  0x00000eb0       0x88 /home/zyq/share/HI3716STD310/source/boot/product/libproduct.a(hi_adp_flash.o)
 .debug_ranges  0x00000f38       0x80 /home/zyq/share/HI3716STD310/source/boot/product/libproduct.a(hi_go_bliter.o)
 .debug_ranges  0x00000fb8       0xe0 /home/zyq/share/HI3716STD310/source/boot/product/libproduct.a(hi_go_decoder.o)
 .debug_ranges  0x00001098       0x50 /home/zyq/share/HI3716STD310/source/boot/product/libproduct.a(adp_jpeg.o)
 .debug_ranges  0x000010e8      0x418 /home/zyq/share/HI3716STD310/source/boot/product/libproduct.a(jpg_decctrl.o)
 .debug_ranges  0x00001500      0x220 /home/zyq/share/HI3716STD310/source/boot/product/libproduct.a(jpg_hdec.o)
 .debug_ranges  0x00001720      0x5f8 /home/zyq/share/HI3716STD310/source/boot/product/libproduct.a(jpg_parse.o)
 .debug_ranges  0x00001d18       0x68 /home/zyq/share/HI3716STD310/source/boot/product/libproduct.a(drv_gpio.o)
 .debug_ranges  0x00001d80      0x128 /home/zyq/share/HI3716STD310/source/boot/product/libproduct.a(boot_pdm.o)
 .debug_ranges  0x00001ea8       0x40 /home/zyq/share/HI3716STD310/source/boot/product/libproduct.a(txvidp.o)
 .debug_ranges  0x00001ee8      0x2b0 /home/zyq/share/HI3716STD310/source/boot/product/libproduct.a(hi_keyled_inner.o)
 .debug_ranges  0x00002198       0x40 /home/zyq/share/HI3716STD310/source/boot/product/libproduct.a(otp.o)
 .debug_ranges  0x000021d8       0xb8 /home/zyq/share/HI3716STD310/source/boot/product/libproduct.a(optm_hifb.o)
 .debug_ranges  0x00002290      0x328 /home/zyq/share/HI3716STD310/source/boot/product/libproduct.a(optm_m_disp.o)
 .debug_ranges  0x000025b8       0x20 /home/zyq/share/HI3716STD310/source/boot/product/libproduct.a(vo_wrap.o)
 .debug_ranges  0x000025d8       0x50 /home/zyq/share/HI3716STD310/source/boot/product/libproduct.a(optm_alg_api.o)
 .debug_ranges  0x00002628      0x2b0 /home/zyq/share/HI3716STD310/source/boot/product/libproduct.a(optm_alg.o)
 .debug_ranges  0x000028d8      0x348 /home/zyq/share/HI3716STD310/source/boot/product/libproduct.a(adp_gfx.o)
 .debug_ranges  0x00002c20       0x50 /home/zyq/share/HI3716STD310/source/boot/product/libproduct.a(adp_layer.o)
 .debug_ranges  0x00002c70       0x18 /home/zyq/share/HI3716STD310/source/boot/product/libproduct.a(higo_memory.o)
 .debug_ranges  0x00002c88     0x1068 /home/zyq/share/HI3716STD310/source/boot/product/libproduct.a(tde_osictl.o)
 .debug_ranges  0x00003cf0      0x378 /home/zyq/share/HI3716STD310/source/boot/product/libproduct.a(tde_osilist.o)
 .debug_ranges  0x00004068       0x18 /home/zyq/share/HI3716STD310/source/boot/product/libproduct.a(wmalloc.o)
 .debug_ranges  0x00004080     0x1270 /home/zyq/share/HI3716STD310/source/boot/product/libproduct.a(optm_hal.o)
 .debug_ranges  0x000052f0      0x168 /home/zyq/share/HI3716STD310/source/boot/product/libproduct.a(tde_hal.o)
 .debug_ranges  0x00005458       0x30 board/hi3716mv310/libhi3716mv310.a(board.o)
 .debug_ranges  0x00005488       0x30 lib/libgeneric.a(vsprintf.o)
 .debug_ranges  0x000054b8       0x60 lib/libgeneric.a(vsnprintf.o)
 .debug_ranges  0x00005518       0x30 lib/libgeneric.a(reserve_mem.o)
 .debug_ranges  0x00005548       0x30 lib/libgeneric.a(parse_bootargs.o)
 .debug_ranges  0x00005578      0x148 arch/arm/lib/libarm.a(bootm.o)
 .debug_ranges  0x000056c0       0x68 drivers/mtd/nand/libnand.a(nand_util.o)
 .debug_ranges  0x00005728      0x1c8 drivers/net/hisfv300/libhisfv300.a(net-drv.o)
 .debug_ranges  0x000058f0       0x68 drivers/net/hisfv300/libhisfv300.a(ctrl.o)
 .debug_ranges  0x00005958      0x138 drivers/net/hisfv300/libhisfv300.a(glb.o)
 .debug_ranges  0x00005a90      0x388 drivers/net/hisfv300/libhisfv300.a(mac.o)
 .debug_ranges  0x00005e18       0x78 drivers/net/hisfv300/libhisfv300.a(sys.o)
 .debug_ranges  0x00005e90      0x120 common/libcommon.a(flash_part.o)
 .debug_ranges  0x00005fb0       0xd8 /opt/hisi-linux/x86-arm/arm-hisiv200-linux/bin/../lib/gcc/arm-hisiv200-linux-gnueabi/4.4.1/libgcc.a(_divdi3.o)
 .debug_ranges  0x00006088       0xc8 /opt/hisi-linux/x86-arm/arm-hisiv200-linux/bin/../lib/gcc/arm-hisiv200-linux-gnueabi/4.4.1/libgcc.a(_udivdi3.o)
